GAS LISTING C:\Users\Jason\AppData\Local\Temp/ccHKK7pe.s 			page 1


   1               		.file	"uart.c"
   2               	__SREG__ = 0x3f
   3               	__SP_H__ = 0x3e
   4               	__SP_L__ = 0x3d
   5               	__CCP__  = 0x34
   6               	__tmp_reg__ = 0
   7               	__zero_reg__ = 1
   8               		.section	.debug_abbrev,"",@progbits
   9               	.Ldebug_abbrev0:
  10               		.section	.debug_info,"",@progbits
  11               	.Ldebug_info0:
  12               		.section	.debug_line,"",@progbits
  13               	.Ldebug_line0:
  14               		.text
  15               	.Ltext0:
  16               	.global	uartSetRxHandler
  17               		.type	uartSetRxHandler, @function
  18               	uartSetRxHandler:
  19               	.LFB4:
  20               	.LM1:
  21               	.LVL0:
  22               	/* prologue: function */
  23               	/* frame size = 0 */
  24               	.LM2:
  25 0000 9093 0000 		sts (UartRxFunc)+1,r25
  26 0004 8093 0000 		sts UartRxFunc,r24
  27               	/* epilogue start */
  28               	.LM3:
  29 0008 0895      		ret
  30               	.LFE4:
  31               		.size	uartSetRxHandler, .-uartSetRxHandler
  32               	.global	uartSetBaudRate
  33               		.type	uartSetBaudRate, @function
  34               	uartSetBaudRate:
  35               	.LFB5:
  36               	.LM4:
  37               	.LVL1:
  38               	/* prologue: function */
  39               	/* frame size = 0 */
  40 000a 9B01      		movw r18,r22
  41 000c AC01      		movw r20,r24
  42               	.LM5:
  43 000e 6050      		subi r22,lo8(-(921600))
  44 0010 704F      		sbci r23,hi8(-(921600))
  45 0012 814F      		sbci r24,hlo8(-(921600))
  46 0014 9F4F      		sbci r25,hhi8(-(921600))
  47               	.LVL2:
  48 0016 F3E0      		ldi r31,3
  49 0018 660F      	1:	lsl r22
  50 001a 771F      		rol r23
  51 001c 881F      		rol r24
  52 001e 991F      		rol r25
  53 0020 FA95      		dec r31
  54 0022 01F4      		brne 1b
  55 0024 E4E0      		ldi r30,4
  56 0026 220F      	1:	lsl r18
  57 0028 331F      		rol r19
GAS LISTING C:\Users\Jason\AppData\Local\Temp/ccHKK7pe.s 			page 2


  58 002a 441F      		rol r20
  59 002c 551F      		rol r21
  60 002e EA95      		dec r30
  61 0030 01F4      		brne 1b
  62 0032 0E94 0000 		call __udivmodsi4
  63               	.LVL3:
  64 0036 2150      		subi r18,lo8(-(-1))
  65 0038 3040      		sbci r19,hi8(-(-1))
  66 003a 29B9      		out 41-32,r18
  67               	/* epilogue start */
  68               	.LM6:
  69 003c 0895      		ret
  70               	.LFE5:
  71               		.size	uartSetBaudRate, .-uartSetBaudRate
  72               	.global	uartGetRxBuffer
  73               		.type	uartGetRxBuffer, @function
  74               	uartGetRxBuffer:
  75               	.LFB6:
  76               	.LM7:
  77               	/* prologue: function */
  78               	/* frame size = 0 */
  79               	.LM8:
  80 003e 80E0      		ldi r24,lo8(uartRxBuffer)
  81 0040 90E0      		ldi r25,hi8(uartRxBuffer)
  82               	/* epilogue start */
  83 0042 0895      		ret
  84               	.LFE6:
  85               		.size	uartGetRxBuffer, .-uartGetRxBuffer
  86               	.global	uartGetTxBuffer
  87               		.type	uartGetTxBuffer, @function
  88               	uartGetTxBuffer:
  89               	.LFB7:
  90               	.LM9:
  91               	/* prologue: function */
  92               	/* frame size = 0 */
  93               	.LM10:
  94 0044 80E0      		ldi r24,lo8(uartTxBuffer)
  95 0046 90E0      		ldi r25,hi8(uartTxBuffer)
  96               	/* epilogue start */
  97 0048 0895      		ret
  98               	.LFE7:
  99               		.size	uartGetTxBuffer, .-uartGetTxBuffer
 100               	.global	uartSendByte
 101               		.type	uartSendByte, @function
 102               	uartSendByte:
 103               	.LFB8:
 104               	.LM11:
 105               	.LVL4:
 106               	/* prologue: function */
 107               	/* frame size = 0 */
 108 004a 982F      		mov r25,r24
 109               	.LVL5:
 110               	.L10:
 111               	.LM12:
 112 004c 8091 0000 		lds r24,uartReadyTx
 113 0050 8823      		tst r24
 114 0052 01F0      		breq .L10
GAS LISTING C:\Users\Jason\AppData\Local\Temp/ccHKK7pe.s 			page 3


 115               	.LM13:
 116 0054 9CB9      		out 44-32,r25
 117               	.LM14:
 118 0056 1092 0000 		sts uartReadyTx,__zero_reg__
 119               	/* epilogue start */
 120               	.LM15:
 121 005a 0895      		ret
 122               	.LFE8:
 123               		.size	uartSendByte, .-uartSendByte
 124               	.global	uartFlushReceiveBuffer
 125               		.type	uartFlushReceiveBuffer, @function
 126               	uartFlushReceiveBuffer:
 127               	.LFB11:
 128               	.LM16:
 129               	/* prologue: function */
 130               	/* frame size = 0 */
 131               	.LM17:
 132 005c 1092 0000 		sts (uartRxBuffer+4)+1,__zero_reg__
 133 0060 1092 0000 		sts uartRxBuffer+4,__zero_reg__
 134               	/* epilogue start */
 135               	.LM18:
 136 0064 0895      		ret
 137               	.LFE11:
 138               		.size	uartFlushReceiveBuffer, .-uartFlushReceiveBuffer
 139               	.global	uartReceiveBufferIsEmpty
 140               		.type	uartReceiveBufferIsEmpty, @function
 141               	uartReceiveBufferIsEmpty:
 142               	.LFB12:
 143               	.LM19:
 144               	/* prologue: function */
 145               	/* frame size = 0 */
 146               	.LM20:
 147 0066 8091 0000 		lds r24,uartRxBuffer+4
 148 006a 9091 0000 		lds r25,(uartRxBuffer+4)+1
 149 006e 892B      		or r24,r25
 150 0070 01F0      		breq .L16
 151 0072 80E0      		ldi r24,lo8(0)
 152 0074 0895      		ret
 153               	.L16:
 154 0076 8FEF      		ldi r24,lo8(-1)
 155               	.LM21:
 156 0078 0895      		ret
 157               	.LFE12:
 158               		.size	uartReceiveBufferIsEmpty, .-uartReceiveBufferIsEmpty
 159               	.global	__vector_11
 160               		.type	__vector_11, @function
 161               	__vector_11:
 162               	.LFB16:
 163               	.LM22:
 164 007a 1F92      		push __zero_reg__
 165 007c 0F92      		push r0
 166 007e 0FB6      		in r0,__SREG__
 167 0080 0F92      		push r0
 168 0082 1124      		clr __zero_reg__
 169 0084 2F93      		push r18
 170 0086 3F93      		push r19
 171 0088 4F93      		push r20
GAS LISTING C:\Users\Jason\AppData\Local\Temp/ccHKK7pe.s 			page 4


 172 008a 5F93      		push r21
 173 008c 6F93      		push r22
 174 008e 7F93      		push r23
 175 0090 8F93      		push r24
 176 0092 9F93      		push r25
 177 0094 AF93      		push r26
 178 0096 BF93      		push r27
 179 0098 EF93      		push r30
 180 009a FF93      		push r31
 181               	/* prologue: Signal */
 182               	/* frame size = 0 */
 183               	.LM23:
 184 009c 6CB1      		in r22,44-32
 185               	.LVL6:
 186               	.LM24:
 187 009e 8091 0000 		lds r24,UartRxFunc
 188 00a2 9091 0000 		lds r25,(UartRxFunc)+1
 189 00a6 892B      		or r24,r25
 190 00a8 01F0      		breq .L20
 191               	.LM25:
 192 00aa E091 0000 		lds r30,UartRxFunc
 193 00ae F091 0000 		lds r31,(UartRxFunc)+1
 194 00b2 862F      		mov r24,r22
 195 00b4 0995      		icall
 196               	.LVL7:
 197 00b6 00C0      		rjmp .L22
 198               	.LVL8:
 199               	.L20:
 200               	.LM26:
 201 00b8 80E0      		ldi r24,lo8(uartRxBuffer)
 202 00ba 90E0      		ldi r25,hi8(uartRxBuffer)
 203 00bc 0E94 0000 		call bufferAddToEnd
 204               	.LVL9:
 205 00c0 8823      		tst r24
 206 00c2 01F4      		brne .L22
 207               	.LM27:
 208 00c4 8091 0000 		lds r24,uartRxOverflow
 209 00c8 9091 0000 		lds r25,(uartRxOverflow)+1
 210 00cc 0196      		adiw r24,1
 211 00ce 9093 0000 		sts (uartRxOverflow)+1,r25
 212 00d2 8093 0000 		sts uartRxOverflow,r24
 213               	.L22:
 214               	/* epilogue start */
 215               	.LM28:
 216 00d6 FF91      		pop r31
 217 00d8 EF91      		pop r30
 218 00da BF91      		pop r27
 219 00dc AF91      		pop r26
 220 00de 9F91      		pop r25
 221 00e0 8F91      		pop r24
 222 00e2 7F91      		pop r23
 223 00e4 6F91      		pop r22
 224 00e6 5F91      		pop r21
 225 00e8 4F91      		pop r20
 226 00ea 3F91      		pop r19
 227 00ec 2F91      		pop r18
 228 00ee 0F90      		pop r0
GAS LISTING C:\Users\Jason\AppData\Local\Temp/ccHKK7pe.s 			page 5


 229 00f0 0FBE      		out __SREG__,r0
 230 00f2 0F90      		pop r0
 231 00f4 1F90      		pop __zero_reg__
 232 00f6 1895      		reti
 233               	.LFE16:
 234               		.size	__vector_11, .-__vector_11
 235               	.global	uartAddToTxBuffer
 236               		.type	uartAddToTxBuffer, @function
 237               	uartAddToTxBuffer:
 238               	.LFB13:
 239               	.LM29:
 240               	.LVL10:
 241               	/* prologue: function */
 242               	/* frame size = 0 */
 243 00f8 682F      		mov r22,r24
 244               	.LM30:
 245 00fa 80E0      		ldi r24,lo8(uartTxBuffer)
 246 00fc 90E0      		ldi r25,hi8(uartTxBuffer)
 247               	.LVL11:
 248 00fe 0E94 0000 		call bufferAddToEnd
 249               	.LVL12:
 250               	/* epilogue start */
 251               	.LM31:
 252 0102 0895      		ret
 253               	.LFE13:
 254               		.size	uartAddToTxBuffer, .-uartAddToTxBuffer
 255               	.global	__vector_13
 256               		.type	__vector_13, @function
 257               	__vector_13:
 258               	.LFB15:
 259               	.LM32:
 260 0104 1F92      		push __zero_reg__
 261 0106 0F92      		push r0
 262 0108 0FB6      		in r0,__SREG__
 263 010a 0F92      		push r0
 264 010c 1124      		clr __zero_reg__
 265 010e 2F93      		push r18
 266 0110 3F93      		push r19
 267 0112 4F93      		push r20
 268 0114 5F93      		push r21
 269 0116 6F93      		push r22
 270 0118 7F93      		push r23
 271 011a 8F93      		push r24
 272 011c 9F93      		push r25
 273 011e AF93      		push r26
 274 0120 BF93      		push r27
 275 0122 EF93      		push r30
 276 0124 FF93      		push r31
 277               	/* prologue: Signal */
 278               	/* frame size = 0 */
 279               	.LM33:
 280 0126 8091 0000 		lds r24,uartBufferedTx
 281 012a 8823      		tst r24
 282 012c 01F0      		breq .L26
 283               	.LM34:
 284 012e 8091 0000 		lds r24,uartTxBuffer+4
 285 0132 9091 0000 		lds r25,(uartTxBuffer+4)+1
GAS LISTING C:\Users\Jason\AppData\Local\Temp/ccHKK7pe.s 			page 6


 286 0136 892B      		or r24,r25
 287 0138 01F0      		breq .L27
 288               	.LM35:
 289 013a 80E0      		ldi r24,lo8(uartTxBuffer)
 290 013c 90E0      		ldi r25,hi8(uartTxBuffer)
 291 013e 0E94 0000 		call bufferGetFromFront
 292 0142 8CB9      		out 44-32,r24
 293 0144 00C0      		rjmp .L29
 294               	.L27:
 295               	.LM36:
 296 0146 1092 0000 		sts uartBufferedTx,__zero_reg__
 297               	.L26:
 298               	.LM37:
 299 014a 8FEF      		ldi r24,lo8(-1)
 300 014c 8093 0000 		sts uartReadyTx,r24
 301               	.L29:
 302               	/* epilogue start */
 303               	.LM38:
 304 0150 FF91      		pop r31
 305 0152 EF91      		pop r30
 306 0154 BF91      		pop r27
 307 0156 AF91      		pop r26
 308 0158 9F91      		pop r25
 309 015a 8F91      		pop r24
 310 015c 7F91      		pop r23
 311 015e 6F91      		pop r22
 312 0160 5F91      		pop r21
 313 0162 4F91      		pop r20
 314 0164 3F91      		pop r19
 315 0166 2F91      		pop r18
 316 0168 0F90      		pop r0
 317 016a 0FBE      		out __SREG__,r0
 318 016c 0F90      		pop r0
 319 016e 1F90      		pop __zero_reg__
 320 0170 1895      		reti
 321               	.LFE15:
 322               		.size	__vector_13, .-__vector_13
 323               	.global	uartSendTxBuffer
 324               		.type	uartSendTxBuffer, @function
 325               	uartSendTxBuffer:
 326               	.LFB14:
 327               	.LM39:
 328               	/* prologue: function */
 329               	/* frame size = 0 */
 330               	.LM40:
 331 0172 8FEF      		ldi r24,lo8(-1)
 332 0174 8093 0000 		sts uartBufferedTx,r24
 333               	.LM41:
 334 0178 80E0      		ldi r24,lo8(uartTxBuffer)
 335 017a 90E0      		ldi r25,hi8(uartTxBuffer)
 336 017c 0E94 0000 		call bufferGetFromFront
 337 0180 982F      		mov r25,r24
 338               	.L31:
 339               	.LBB4:
 340               	.LBB5:
 341               	.LM42:
 342 0182 8091 0000 		lds r24,uartReadyTx
GAS LISTING C:\Users\Jason\AppData\Local\Temp/ccHKK7pe.s 			page 7


 343 0186 8823      		tst r24
 344 0188 01F0      		breq .L31
 345               	.LM43:
 346 018a 9CB9      		out 44-32,r25
 347               	.LM44:
 348 018c 1092 0000 		sts uartReadyTx,__zero_reg__
 349               	/* epilogue start */
 350               	.LBE5:
 351               	.LBE4:
 352               	.LM45:
 353 0190 0895      		ret
 354               	.LFE14:
 355               		.size	uartSendTxBuffer, .-uartSendTxBuffer
 356               	.global	uartReceiveByte
 357               		.type	uartReceiveByte, @function
 358               	uartReceiveByte:
 359               	.LFB10:
 360               	.LM46:
 361               	.LVL13:
 362 0192 CF93      		push r28
 363 0194 DF93      		push r29
 364               	/* prologue: function */
 365               	/* frame size = 0 */
 366 0196 EC01      		movw r28,r24
 367               	.LM47:
 368 0198 8091 0000 		lds r24,uartRxBuffer+2
 369 019c 9091 0000 		lds r25,(uartRxBuffer+2)+1
 370               	.LVL14:
 371 01a0 892B      		or r24,r25
 372 01a2 01F0      		breq .L35
 373               	.LM48:
 374 01a4 8091 0000 		lds r24,uartRxBuffer+4
 375 01a8 9091 0000 		lds r25,(uartRxBuffer+4)+1
 376 01ac 892B      		or r24,r25
 377 01ae 01F0      		breq .L35
 378               	.LM49:
 379 01b0 80E0      		ldi r24,lo8(uartRxBuffer)
 380 01b2 90E0      		ldi r25,hi8(uartRxBuffer)
 381 01b4 0E94 0000 		call bufferGetFromFront
 382 01b8 8883      		st Y,r24
 383 01ba 8FEF      		ldi r24,lo8(-1)
 384 01bc 00C0      		rjmp .L36
 385               	.L35:
 386               	.LM50:
 387 01be 80E0      		ldi r24,lo8(0)
 388               	.L36:
 389               	/* epilogue start */
 390               	.LM51:
 391 01c0 DF91      		pop r29
 392 01c2 CF91      		pop r28
 393               	.LVL15:
 394 01c4 0895      		ret
 395               	.LFE10:
 396               		.size	uartReceiveByte, .-uartReceiveByte
 397               	.global	uartGetByte
 398               		.type	uartGetByte, @function
 399               	uartGetByte:
GAS LISTING C:\Users\Jason\AppData\Local\Temp/ccHKK7pe.s 			page 8


 400               	.LFB9:
 401               	.LM52:
 402 01c6 DF93      		push r29
 403 01c8 CF93      		push r28
 404 01ca 0F92      		push __tmp_reg__
 405 01cc CDB7      		in r28,__SP_L__
 406 01ce DEB7      		in r29,__SP_H__
 407               	/* prologue: function */
 408               	/* frame size = 1 */
 409               	.LM53:
 410 01d0 CE01      		movw r24,r28
 411 01d2 0196      		adiw r24,1
 412 01d4 0E94 0000 		call uartReceiveByte
 413 01d8 8823      		tst r24
 414 01da 01F4      		brne .L39
 415 01dc 2FEF      		ldi r18,lo8(-1)
 416 01de 3FEF      		ldi r19,hi8(-1)
 417 01e0 00C0      		rjmp .L40
 418               	.L39:
 419               	.LM54:
 420 01e2 8981      		ldd r24,Y+1
 421               	.LVL16:
 422 01e4 282F      		mov r18,r24
 423 01e6 30E0      		ldi r19,lo8(0)
 424               	.LVL17:
 425               	.L40:
 426               	.LM55:
 427 01e8 C901      		movw r24,r18
 428               	.LVL18:
 429               	/* epilogue start */
 430 01ea 0F90      		pop __tmp_reg__
 431 01ec CF91      		pop r28
 432 01ee DF91      		pop r29
 433 01f0 0895      		ret
 434               	.LFE9:
 435               		.size	uartGetByte, .-uartGetByte
 436               	.global	uartInitBuffers
 437               		.type	uartInitBuffers, @function
 438               	uartInitBuffers:
 439               	.LFB3:
 440               	.LM56:
 441               	/* prologue: function */
 442               	/* frame size = 0 */
 443               	.LM57:
 444 01f2 80E0      		ldi r24,lo8(uartRxBuffer)
 445 01f4 90E0      		ldi r25,hi8(uartRxBuffer)
 446 01f6 60E0      		ldi r22,lo8(uartRxData)
 447 01f8 70E0      		ldi r23,hi8(uartRxData)
 448 01fa 40E4      		ldi r20,lo8(64)
 449 01fc 50E0      		ldi r21,hi8(64)
 450 01fe 0E94 0000 		call bufferInit
 451               	.LM58:
 452 0202 80E0      		ldi r24,lo8(uartTxBuffer)
 453 0204 90E0      		ldi r25,hi8(uartTxBuffer)
 454 0206 60E0      		ldi r22,lo8(uartTxData)
 455 0208 70E0      		ldi r23,hi8(uartTxData)
 456 020a 40E4      		ldi r20,lo8(64)
GAS LISTING C:\Users\Jason\AppData\Local\Temp/ccHKK7pe.s 			page 9


 457 020c 50E0      		ldi r21,hi8(64)
 458 020e 0E94 0000 		call bufferInit
 459               	/* epilogue start */
 460               	.LM59:
 461 0212 0895      		ret
 462               	.LFE3:
 463               		.size	uartInitBuffers, .-uartInitBuffers
 464               	.global	uartInit
 465               		.type	uartInit, @function
 466               	uartInit:
 467               	.LFB2:
 468               	.LM60:
 469               	/* prologue: function */
 470               	/* frame size = 0 */
 471               	.LM61:
 472 0214 0E94 0000 		call uartInitBuffers
 473               	.LM62:
 474 0218 1092 0000 		sts (UartRxFunc)+1,__zero_reg__
 475 021c 1092 0000 		sts UartRxFunc,__zero_reg__
 476               	.LM63:
 477 0220 88ED      		ldi r24,lo8(-40)
 478 0222 8AB9      		out 42-32,r24
 479               	.LM64:
 480 0224 60E8      		ldi r22,lo8(9600)
 481 0226 75E2      		ldi r23,hi8(9600)
 482 0228 80E0      		ldi r24,hlo8(9600)
 483 022a 90E0      		ldi r25,hhi8(9600)
 484 022c 0E94 0000 		call uartSetBaudRate
 485               	.LM65:
 486 0230 8FEF      		ldi r24,lo8(-1)
 487 0232 8093 0000 		sts uartReadyTx,r24
 488               	.LM66:
 489 0236 1092 0000 		sts uartBufferedTx,__zero_reg__
 490               	.LM67:
 491 023a 1092 0000 		sts (uartRxOverflow)+1,__zero_reg__
 492 023e 1092 0000 		sts uartRxOverflow,__zero_reg__
 493               	.LM68:
 494               	/* #APP */
 495               	 ;  62 "C:\AVRlib/uart.c" 1
 496 0242 7894      		sei
 497               	 ;  0 "" 2
 498               	/* epilogue start */
 499               	.LM69:
 500               	/* #NOAPP */
 501 0244 0895      		ret
 502               	.LFE2:
 503               		.size	uartInit, .-uartInit
 504               		.lcomm uartRxData,64
 505               		.lcomm uartTxData,64
 506               		.lcomm UartRxFunc,2
 507               		.comm uartReadyTx,1,1
 508               		.comm uartBufferedTx,1,1
 509               		.comm uartRxBuffer,8,1
 510               		.comm uartTxBuffer,8,1
 511               		.comm uartRxOverflow,2,1
 512               		.section	.debug_frame,"",@progbits
 513               	.Lframe0:
GAS LISTING C:\Users\Jason\AppData\Local\Temp/ccHKK7pe.s 			page 10


 514 0000 0C00 0000 		.long	.LECIE0-.LSCIE0
 515               	.LSCIE0:
 516 0004 FFFF FFFF 		.long	0xffffffff
 517 0008 01        		.byte	0x1
 518 0009 00        		.string	""
 519 000a 01        		.uleb128 0x1
 520 000b 7F        		.sleb128 -1
 521 000c 24        		.byte	0x24
 522 000d 0C        		.byte	0xc
 523 000e 20        		.uleb128 0x20
 524 000f 00        		.uleb128 0x0
 525               		.p2align	2
 526               	.LECIE0:
 527               	.LSFDE0:
 528 0010 0C00 0000 		.long	.LEFDE0-.LASFDE0
 529               	.LASFDE0:
 530 0014 0000 0000 		.long	.Lframe0
 531 0018 0000 0000 		.long	.LFB4
 532 001c 0A00 0000 		.long	.LFE4-.LFB4
 533               		.p2align	2
 534               	.LEFDE0:
 535               	.LSFDE2:
 536 0020 0C00 0000 		.long	.LEFDE2-.LASFDE2
 537               	.LASFDE2:
 538 0024 0000 0000 		.long	.Lframe0
 539 0028 0000 0000 		.long	.LFB5
 540 002c 3400 0000 		.long	.LFE5-.LFB5
 541               		.p2align	2
 542               	.LEFDE2:
 543               	.LSFDE4:
 544 0030 0C00 0000 		.long	.LEFDE4-.LASFDE4
 545               	.LASFDE4:
 546 0034 0000 0000 		.long	.Lframe0
 547 0038 0000 0000 		.long	.LFB6
 548 003c 0600 0000 		.long	.LFE6-.LFB6
 549               		.p2align	2
 550               	.LEFDE4:
 551               	.LSFDE6:
 552 0040 0C00 0000 		.long	.LEFDE6-.LASFDE6
 553               	.LASFDE6:
 554 0044 0000 0000 		.long	.Lframe0
 555 0048 0000 0000 		.long	.LFB7
 556 004c 0600 0000 		.long	.LFE7-.LFB7
 557               		.p2align	2
 558               	.LEFDE6:
 559               	.LSFDE8:
 560 0050 0C00 0000 		.long	.LEFDE8-.LASFDE8
 561               	.LASFDE8:
 562 0054 0000 0000 		.long	.Lframe0
 563 0058 0000 0000 		.long	.LFB8
 564 005c 1200 0000 		.long	.LFE8-.LFB8
 565               		.p2align	2
 566               	.LEFDE8:
 567               	.LSFDE10:
 568 0060 0C00 0000 		.long	.LEFDE10-.LASFDE10
 569               	.LASFDE10:
 570 0064 0000 0000 		.long	.Lframe0
GAS LISTING C:\Users\Jason\AppData\Local\Temp/ccHKK7pe.s 			page 11


 571 0068 0000 0000 		.long	.LFB11
 572 006c 0A00 0000 		.long	.LFE11-.LFB11
 573               		.p2align	2
 574               	.LEFDE10:
 575               	.LSFDE12:
 576 0070 0C00 0000 		.long	.LEFDE12-.LASFDE12
 577               	.LASFDE12:
 578 0074 0000 0000 		.long	.Lframe0
 579 0078 0000 0000 		.long	.LFB12
 580 007c 1400 0000 		.long	.LFE12-.LFB12
 581               		.p2align	2
 582               	.LEFDE12:
 583               	.LSFDE14:
 584 0080 0C00 0000 		.long	.LEFDE14-.LASFDE14
 585               	.LASFDE14:
 586 0084 0000 0000 		.long	.Lframe0
 587 0088 0000 0000 		.long	.LFB16
 588 008c 7E00 0000 		.long	.LFE16-.LFB16
 589               		.p2align	2
 590               	.LEFDE14:
 591               	.LSFDE16:
 592 0090 0C00 0000 		.long	.LEFDE16-.LASFDE16
 593               	.LASFDE16:
 594 0094 0000 0000 		.long	.Lframe0
 595 0098 0000 0000 		.long	.LFB13
 596 009c 0C00 0000 		.long	.LFE13-.LFB13
 597               		.p2align	2
 598               	.LEFDE16:
 599               	.LSFDE18:
 600 00a0 0C00 0000 		.long	.LEFDE18-.LASFDE18
 601               	.LASFDE18:
 602 00a4 0000 0000 		.long	.Lframe0
 603 00a8 0000 0000 		.long	.LFB15
 604 00ac 6E00 0000 		.long	.LFE15-.LFB15
 605               		.p2align	2
 606               	.LEFDE18:
 607               	.LSFDE20:
 608 00b0 0C00 0000 		.long	.LEFDE20-.LASFDE20
 609               	.LASFDE20:
 610 00b4 0000 0000 		.long	.Lframe0
 611 00b8 0000 0000 		.long	.LFB14
 612 00bc 2000 0000 		.long	.LFE14-.LFB14
 613               		.p2align	2
 614               	.LEFDE20:
 615               	.LSFDE22:
 616 00c0 0C00 0000 		.long	.LEFDE22-.LASFDE22
 617               	.LASFDE22:
 618 00c4 0000 0000 		.long	.Lframe0
 619 00c8 0000 0000 		.long	.LFB10
 620 00cc 3400 0000 		.long	.LFE10-.LFB10
 621               		.p2align	2
 622               	.LEFDE22:
 623               	.LSFDE24:
 624 00d0 0C00 0000 		.long	.LEFDE24-.LASFDE24
 625               	.LASFDE24:
 626 00d4 0000 0000 		.long	.Lframe0
 627 00d8 0000 0000 		.long	.LFB9
GAS LISTING C:\Users\Jason\AppData\Local\Temp/ccHKK7pe.s 			page 12


 628 00dc 2C00 0000 		.long	.LFE9-.LFB9
 629               		.p2align	2
 630               	.LEFDE24:
 631               	.LSFDE26:
 632 00e0 0C00 0000 		.long	.LEFDE26-.LASFDE26
 633               	.LASFDE26:
 634 00e4 0000 0000 		.long	.Lframe0
 635 00e8 0000 0000 		.long	.LFB3
 636 00ec 2200 0000 		.long	.LFE3-.LFB3
 637               		.p2align	2
 638               	.LEFDE26:
 639               	.LSFDE28:
 640 00f0 0C00 0000 		.long	.LEFDE28-.LASFDE28
 641               	.LASFDE28:
 642 00f4 0000 0000 		.long	.Lframe0
 643 00f8 0000 0000 		.long	.LFB2
 644 00fc 3200 0000 		.long	.LFE2-.LFB2
 645               		.p2align	2
 646               	.LEFDE28:
 647               		.text
 648               	.Letext0:
 649               		.section	.debug_loc,"",@progbits
 650               	.Ldebug_loc0:
 651               	.LLST2:
 652 0000 0A00 0000 		.long	.LVL1-.Ltext0
 653 0004 1600 0000 		.long	.LVL2-.Ltext0
 654 0008 0C00      		.word	0xc
 655 000a 66        		.byte	0x66
 656 000b 93        		.byte	0x93
 657 000c 01        		.uleb128 0x1
 658 000d 67        		.byte	0x67
 659 000e 93        		.byte	0x93
 660 000f 01        		.uleb128 0x1
 661 0010 68        		.byte	0x68
 662 0011 93        		.byte	0x93
 663 0012 01        		.uleb128 0x1
 664 0013 69        		.byte	0x69
 665 0014 93        		.byte	0x93
 666 0015 01        		.uleb128 0x1
 667 0016 1600 0000 		.long	.LVL2-.Ltext0
 668 001a 3600 0000 		.long	.LVL3-.Ltext0
 669 001e 0C00      		.word	0xc
 670 0020 62        		.byte	0x62
 671 0021 93        		.byte	0x93
 672 0022 01        		.uleb128 0x1
 673 0023 63        		.byte	0x63
 674 0024 93        		.byte	0x93
 675 0025 01        		.uleb128 0x1
 676 0026 64        		.byte	0x64
 677 0027 93        		.byte	0x93
 678 0028 01        		.uleb128 0x1
 679 0029 65        		.byte	0x65
 680 002a 93        		.byte	0x93
 681 002b 01        		.uleb128 0x1
 682 002c 0000 0000 		.long	0x0
 683 0030 0000 0000 		.long	0x0
 684               	.LLST6:
GAS LISTING C:\Users\Jason\AppData\Local\Temp/ccHKK7pe.s 			page 13


 685 0034 4A00 0000 		.long	.LVL4-.Ltext0
 686 0038 4C00 0000 		.long	.LVL5-.Ltext0
 687 003c 0100      		.word	0x1
 688 003e 68        		.byte	0x68
 689 003f 4C00 0000 		.long	.LVL5-.Ltext0
 690 0043 5C00 0000 		.long	.LFE8-.Ltext0
 691 0047 0100      		.word	0x1
 692 0049 69        		.byte	0x69
 693 004a 0000 0000 		.long	0x0
 694 004e 0000 0000 		.long	0x0
 695               	.LLST10:
 696 0052 9E00 0000 		.long	.LVL6-.Ltext0
 697 0056 B600 0000 		.long	.LVL7-.Ltext0
 698 005a 0100      		.word	0x1
 699 005c 66        		.byte	0x66
 700 005d B800 0000 		.long	.LVL8-.Ltext0
 701 0061 C000 0000 		.long	.LVL9-.Ltext0
 702 0065 0100      		.word	0x1
 703 0067 66        		.byte	0x66
 704 0068 0000 0000 		.long	0x0
 705 006c 0000 0000 		.long	0x0
 706               	.LLST12:
 707 0070 F800 0000 		.long	.LVL10-.Ltext0
 708 0074 FE00 0000 		.long	.LVL11-.Ltext0
 709 0078 0100      		.word	0x1
 710 007a 68        		.byte	0x68
 711 007b FE00 0000 		.long	.LVL11-.Ltext0
 712 007f 0201 0000 		.long	.LVL12-.Ltext0
 713 0083 0100      		.word	0x1
 714 0085 66        		.byte	0x66
 715 0086 0000 0000 		.long	0x0
 716 008a 0000 0000 		.long	0x0
 717               	.LLST16:
 718 008e 9201 0000 		.long	.LVL13-.Ltext0
 719 0092 A001 0000 		.long	.LVL14-.Ltext0
 720 0096 0600      		.word	0x6
 721 0098 68        		.byte	0x68
 722 0099 93        		.byte	0x93
 723 009a 01        		.uleb128 0x1
 724 009b 69        		.byte	0x69
 725 009c 93        		.byte	0x93
 726 009d 01        		.uleb128 0x1
 727 009e A001 0000 		.long	.LVL14-.Ltext0
 728 00a2 C401 0000 		.long	.LVL15-.Ltext0
 729 00a6 0600      		.word	0x6
 730 00a8 6C        		.byte	0x6c
 731 00a9 93        		.byte	0x93
 732 00aa 01        		.uleb128 0x1
 733 00ab 6D        		.byte	0x6d
 734 00ac 93        		.byte	0x93
 735 00ad 01        		.uleb128 0x1
 736 00ae 0000 0000 		.long	0x0
 737 00b2 0000 0000 		.long	0x0
 738               	.LLST18:
 739 00b6 E401 0000 		.long	.LVL16-.Ltext0
 740 00ba E801 0000 		.long	.LVL17-.Ltext0
 741 00be 0200      		.word	0x2
GAS LISTING C:\Users\Jason\AppData\Local\Temp/ccHKK7pe.s 			page 14


 742 00c0 8C        		.byte	0x8c
 743 00c1 01        		.sleb128 1
 744 00c2 E801 0000 		.long	.LVL17-.Ltext0
 745 00c6 EA01 0000 		.long	.LVL18-.Ltext0
 746 00ca 0100      		.word	0x1
 747 00cc 68        		.byte	0x68
 748 00cd EA01 0000 		.long	.LVL18-.Ltext0
 749 00d1 F201 0000 		.long	.LFE9-.Ltext0
 750 00d5 0200      		.word	0x2
 751 00d7 8C        		.byte	0x8c
 752 00d8 01        		.sleb128 1
 753 00d9 0000 0000 		.long	0x0
 754 00dd 0000 0000 		.long	0x0
 755               		.section	.debug_info
 756 0000 BB03 0000 		.long	0x3bb
 757 0004 0200      		.word	0x2
 758 0006 0000 0000 		.long	.Ldebug_abbrev0
 759 000a 04        		.byte	0x4
 760 000b 01        		.uleb128 0x1
 761 000c 0000 0000 		.long	.LASF42
 762 0010 01        		.byte	0x1
 763 0011 0000 0000 		.long	.LASF43
 764 0015 0000 0000 		.long	.Ltext0
 765 0019 0000 0000 		.long	.Letext0
 766 001d 0000 0000 		.long	.Ldebug_line0
 767 0021 02        		.uleb128 0x2
 768 0022 01        		.byte	0x1
 769 0023 06        		.byte	0x6
 770 0024 0000 0000 		.long	.LASF0
 771 0028 02        		.uleb128 0x2
 772 0029 01        		.byte	0x1
 773 002a 08        		.byte	0x8
 774 002b 0000 0000 		.long	.LASF1
 775 002f 03        		.uleb128 0x3
 776 0030 02        		.byte	0x2
 777 0031 05        		.byte	0x5
 778 0032 696E 7400 		.string	"int"
 779 0036 02        		.uleb128 0x2
 780 0037 02        		.byte	0x2
 781 0038 07        		.byte	0x7
 782 0039 0000 0000 		.long	.LASF2
 783 003d 02        		.uleb128 0x2
 784 003e 04        		.byte	0x4
 785 003f 05        		.byte	0x5
 786 0040 0000 0000 		.long	.LASF3
 787 0044 02        		.uleb128 0x2
 788 0045 04        		.byte	0x4
 789 0046 07        		.byte	0x7
 790 0047 0000 0000 		.long	.LASF4
 791 004b 02        		.uleb128 0x2
 792 004c 08        		.byte	0x8
 793 004d 05        		.byte	0x5
 794 004e 0000 0000 		.long	.LASF5
 795 0052 02        		.uleb128 0x2
 796 0053 08        		.byte	0x8
 797 0054 07        		.byte	0x7
 798 0055 0000 0000 		.long	.LASF6
GAS LISTING C:\Users\Jason\AppData\Local\Temp/ccHKK7pe.s 			page 15


 799 0059 04        		.uleb128 0x4
 800 005a 0000 0000 		.long	.LASF44
 801 005e 08        		.byte	0x8
 802 005f 02        		.byte	0x2
 803 0060 2A        		.byte	0x2a
 804 0061 9E00 0000 		.long	0x9e
 805 0065 05        		.uleb128 0x5
 806 0066 0000 0000 		.long	.LASF7
 807 006a 02        		.byte	0x2
 808 006b 2B        		.byte	0x2b
 809 006c 9E00 0000 		.long	0x9e
 810 0070 02        		.byte	0x2
 811 0071 23        		.byte	0x23
 812 0072 00        		.uleb128 0x0
 813 0073 05        		.uleb128 0x5
 814 0074 0000 0000 		.long	.LASF8
 815 0078 02        		.byte	0x2
 816 0079 2C        		.byte	0x2c
 817 007a A400 0000 		.long	0xa4
 818 007e 02        		.byte	0x2
 819 007f 23        		.byte	0x23
 820 0080 02        		.uleb128 0x2
 821 0081 05        		.uleb128 0x5
 822 0082 0000 0000 		.long	.LASF9
 823 0086 02        		.byte	0x2
 824 0087 2D        		.byte	0x2d
 825 0088 A400 0000 		.long	0xa4
 826 008c 02        		.byte	0x2
 827 008d 23        		.byte	0x23
 828 008e 04        		.uleb128 0x4
 829 008f 05        		.uleb128 0x5
 830 0090 0000 0000 		.long	.LASF10
 831 0094 02        		.byte	0x2
 832 0095 2E        		.byte	0x2e
 833 0096 A400 0000 		.long	0xa4
 834 009a 02        		.byte	0x2
 835 009b 23        		.byte	0x23
 836 009c 06        		.uleb128 0x6
 837 009d 00        		.byte	0x0
 838 009e 06        		.uleb128 0x6
 839 009f 02        		.byte	0x2
 840 00a0 2800 0000 		.long	0x28
 841 00a4 02        		.uleb128 0x2
 842 00a5 02        		.byte	0x2
 843 00a6 07        		.byte	0x7
 844 00a7 0000 0000 		.long	.LASF11
 845 00ab 07        		.uleb128 0x7
 846 00ac 0000 0000 		.long	.LASF12
 847 00b0 02        		.byte	0x2
 848 00b1 2F        		.byte	0x2f
 849 00b2 5900 0000 		.long	0x59
 850 00b6 08        		.uleb128 0x8
 851 00b7 7530 3800 		.string	"u08"
 852 00bb 03        		.byte	0x3
 853 00bc 20        		.byte	0x20
 854 00bd 2800 0000 		.long	0x28
 855 00c1 08        		.uleb128 0x8
GAS LISTING C:\Users\Jason\AppData\Local\Temp/ccHKK7pe.s 			page 16


 856 00c2 7531 3600 		.string	"u16"
 857 00c6 03        		.byte	0x3
 858 00c7 22        		.byte	0x22
 859 00c8 A400 0000 		.long	0xa4
 860 00cc 02        		.uleb128 0x2
 861 00cd 02        		.byte	0x2
 862 00ce 05        		.byte	0x5
 863 00cf 0000 0000 		.long	.LASF13
 864 00d3 08        		.uleb128 0x8
 865 00d4 7533 3200 		.string	"u32"
 866 00d8 03        		.byte	0x3
 867 00d9 24        		.byte	0x24
 868 00da 4400 0000 		.long	0x44
 869 00de 02        		.uleb128 0x2
 870 00df 01        		.byte	0x1
 871 00e0 06        		.byte	0x6
 872 00e1 0000 0000 		.long	.LASF14
 873 00e5 07        		.uleb128 0x7
 874 00e6 0000 0000 		.long	.LASF15
 875 00ea 01        		.byte	0x1
 876 00eb 28        		.byte	0x28
 877 00ec F000 0000 		.long	0xf0
 878 00f0 06        		.uleb128 0x6
 879 00f1 02        		.byte	0x2
 880 00f2 F600 0000 		.long	0xf6
 881 00f6 09        		.uleb128 0x9
 882 00f7 01        		.byte	0x1
 883 00f8 0201 0000 		.long	0x102
 884 00fc 0A        		.uleb128 0xa
 885 00fd 2800 0000 		.long	0x28
 886 0101 00        		.byte	0x0
 887 0102 0B        		.uleb128 0xb
 888 0103 01        		.byte	0x1
 889 0104 0000 0000 		.long	.LASF45
 890 0108 01        		.byte	0x1
 891 0109 73        		.byte	0x73
 892 010a 01        		.byte	0x1
 893 010b 01        		.byte	0x1
 894 010c 1C01 0000 		.long	0x11c
 895 0110 0C        		.uleb128 0xc
 896 0111 0000 0000 		.long	.LASF46
 897 0115 01        		.byte	0x1
 898 0116 72        		.byte	0x72
 899 0117 B600 0000 		.long	0xb6
 900 011b 00        		.byte	0x0
 901 011c 0D        		.uleb128 0xd
 902 011d 01        		.byte	0x1
 903 011e 0000 0000 		.long	.LASF16
 904 0122 01        		.byte	0x1
 905 0123 53        		.byte	0x53
 906 0124 01        		.byte	0x1
 907 0125 0000 0000 		.long	.LFB4
 908 0129 0000 0000 		.long	.LFE4
 909 012d 02        		.byte	0x2
 910 012e 90        		.byte	0x90
 911 012f 20        		.uleb128 0x20
 912 0130 4701 0000 		.long	0x147
GAS LISTING C:\Users\Jason\AppData\Local\Temp/ccHKK7pe.s 			page 17


 913 0134 0E        		.uleb128 0xe
 914 0135 0000 0000 		.long	.LASF18
 915 0139 01        		.byte	0x1
 916 013a 52        		.byte	0x52
 917 013b F000 0000 		.long	0xf0
 918 013f 06        		.byte	0x6
 919 0140 68        		.byte	0x68
 920 0141 93        		.byte	0x93
 921 0142 01        		.uleb128 0x1
 922 0143 69        		.byte	0x69
 923 0144 93        		.byte	0x93
 924 0145 01        		.uleb128 0x1
 925 0146 00        		.byte	0x0
 926 0147 0D        		.uleb128 0xd
 927 0148 01        		.byte	0x1
 928 0149 0000 0000 		.long	.LASF17
 929 014d 01        		.byte	0x1
 930 014e 5A        		.byte	0x5a
 931 014f 01        		.byte	0x1
 932 0150 0000 0000 		.long	.LFB5
 933 0154 0000 0000 		.long	.LFE5
 934 0158 02        		.byte	0x2
 935 0159 90        		.byte	0x90
 936 015a 20        		.uleb128 0x20
 937 015b 7A01 0000 		.long	0x17a
 938 015f 0F        		.uleb128 0xf
 939 0160 0000 0000 		.long	.LASF19
 940 0164 01        		.byte	0x1
 941 0165 59        		.byte	0x59
 942 0166 D300 0000 		.long	0xd3
 943 016a 0000 0000 		.long	.LLST2
 944 016e 10        		.uleb128 0x10
 945 016f 0000 0000 		.long	.LASF47
 946 0173 01        		.byte	0x1
 947 0174 5C        		.byte	0x5c
 948 0175 C100 0000 		.long	0xc1
 949 0179 00        		.byte	0x0
 950 017a 11        		.uleb128 0x11
 951 017b 01        		.byte	0x1
 952 017c 0000 0000 		.long	.LASF20
 953 0180 01        		.byte	0x1
 954 0181 65        		.byte	0x65
 955 0182 01        		.byte	0x1
 956 0183 9201 0000 		.long	0x192
 957 0187 0000 0000 		.long	.LFB6
 958 018b 0000 0000 		.long	.LFE6
 959 018f 02        		.byte	0x2
 960 0190 90        		.byte	0x90
 961 0191 20        		.uleb128 0x20
 962 0192 06        		.uleb128 0x6
 963 0193 02        		.byte	0x2
 964 0194 AB00 0000 		.long	0xab
 965 0198 11        		.uleb128 0x11
 966 0199 01        		.byte	0x1
 967 019a 0000 0000 		.long	.LASF21
 968 019e 01        		.byte	0x1
 969 019f 6C        		.byte	0x6c
GAS LISTING C:\Users\Jason\AppData\Local\Temp/ccHKK7pe.s 			page 18


 970 01a0 01        		.byte	0x1
 971 01a1 9201 0000 		.long	0x192
 972 01a5 0000 0000 		.long	.LFB7
 973 01a9 0000 0000 		.long	.LFE7
 974 01ad 02        		.byte	0x2
 975 01ae 90        		.byte	0x90
 976 01af 20        		.uleb128 0x20
 977 01b0 12        		.uleb128 0x12
 978 01b1 0201 0000 		.long	0x102
 979 01b5 0000 0000 		.long	.LFB8
 980 01b9 0000 0000 		.long	.LFE8
 981 01bd 02        		.byte	0x2
 982 01be 90        		.byte	0x90
 983 01bf 20        		.uleb128 0x20
 984 01c0 CE01 0000 		.long	0x1ce
 985 01c4 13        		.uleb128 0x13
 986 01c5 1001 0000 		.long	0x110
 987 01c9 0000 0000 		.long	.LLST6
 988 01cd 00        		.byte	0x0
 989 01ce 14        		.uleb128 0x14
 990 01cf 01        		.byte	0x1
 991 01d0 0000 0000 		.long	.LASF25
 992 01d4 01        		.byte	0x1
 993 01d5 A2        		.byte	0xa2
 994 01d6 01        		.byte	0x1
 995 01d7 0000 0000 		.long	.LFB11
 996 01db 0000 0000 		.long	.LFE11
 997 01df 02        		.byte	0x2
 998 01e0 90        		.byte	0x90
 999 01e1 20        		.uleb128 0x20
 1000 01e2 11        		.uleb128 0x11
 1001 01e3 01        		.byte	0x1
 1002 01e4 0000 0000 		.long	.LASF22
 1003 01e8 01        		.byte	0x1
 1004 01e9 AB        		.byte	0xab
 1005 01ea 01        		.byte	0x1
 1006 01eb B600 0000 		.long	0xb6
 1007 01ef 0000 0000 		.long	.LFB12
 1008 01f3 0000 0000 		.long	.LFE12
 1009 01f7 02        		.byte	0x2
 1010 01f8 90        		.byte	0x90
 1011 01f9 20        		.uleb128 0x20
 1012 01fa 15        		.uleb128 0x15
 1013 01fb 01        		.byte	0x1
 1014 01fc 0000 0000 		.long	.LASF23
 1015 0200 01        		.byte	0x1
 1016 0201 0301      		.word	0x103
 1017 0203 01        		.byte	0x1
 1018 0204 0000 0000 		.long	.LFB16
 1019 0208 0000 0000 		.long	.LFE16
 1020 020c 02        		.byte	0x2
 1021 020d 90        		.byte	0x90
 1022 020e 20        		.uleb128 0x20
 1023 020f 2202 0000 		.long	0x222
 1024 0213 16        		.uleb128 0x16
 1025 0214 6300      		.string	"c"
 1026 0216 01        		.byte	0x1
GAS LISTING C:\Users\Jason\AppData\Local\Temp/ccHKK7pe.s 			page 19


 1027 0217 0401      		.word	0x104
 1028 0219 B600 0000 		.long	0xb6
 1029 021d 0000 0000 		.long	.LLST10
 1030 0221 00        		.byte	0x0
 1031 0222 17        		.uleb128 0x17
 1032 0223 01        		.byte	0x1
 1033 0224 0000 0000 		.long	.LASF28
 1034 0228 01        		.byte	0x1
 1035 0229 B8        		.byte	0xb8
 1036 022a 01        		.byte	0x1
 1037 022b B600 0000 		.long	0xb6
 1038 022f 0000 0000 		.long	.LFB13
 1039 0233 0000 0000 		.long	.LFE13
 1040 0237 02        		.byte	0x2
 1041 0238 90        		.byte	0x90
 1042 0239 20        		.uleb128 0x20
 1043 023a 4E02 0000 		.long	0x24e
 1044 023e 0F        		.uleb128 0xf
 1045 023f 0000 0000 		.long	.LASF24
 1046 0243 01        		.byte	0x1
 1047 0244 B7        		.byte	0xb7
 1048 0245 B600 0000 		.long	0xb6
 1049 0249 0000 0000 		.long	.LLST12
 1050 024d 00        		.byte	0x0
 1051 024e 14        		.uleb128 0x14
 1052 024f 01        		.byte	0x1
 1053 0250 0000 0000 		.long	.LASF26
 1054 0254 01        		.byte	0x1
 1055 0255 E7        		.byte	0xe7
 1056 0256 01        		.byte	0x1
 1057 0257 0000 0000 		.long	.LFB15
 1058 025b 0000 0000 		.long	.LFE15
 1059 025f 02        		.byte	0x2
 1060 0260 90        		.byte	0x90
 1061 0261 20        		.uleb128 0x20
 1062 0262 0D        		.uleb128 0xd
 1063 0263 01        		.byte	0x1
 1064 0264 0000 0000 		.long	.LASF27
 1065 0268 01        		.byte	0x1
 1066 0269 BF        		.byte	0xbf
 1067 026a 01        		.byte	0x1
 1068 026b 0000 0000 		.long	.LFB14
 1069 026f 0000 0000 		.long	.LFE14
 1070 0273 02        		.byte	0x2
 1071 0274 90        		.byte	0x90
 1072 0275 20        		.uleb128 0x20
 1073 0276 9002 0000 		.long	0x290
 1074 027a 18        		.uleb128 0x18
 1075 027b 0201 0000 		.long	0x102
 1076 027f 0000 0000 		.long	.LBB4
 1077 0283 0000 0000 		.long	.LBE4
 1078 0287 01        		.byte	0x1
 1079 0288 C3        		.byte	0xc3
 1080 0289 19        		.uleb128 0x19
 1081 028a C401 0000 		.long	0x1c4
 1082 028e 00        		.byte	0x0
 1083 028f 00        		.byte	0x0
GAS LISTING C:\Users\Jason\AppData\Local\Temp/ccHKK7pe.s 			page 20


 1084 0290 17        		.uleb128 0x17
 1085 0291 01        		.byte	0x1
 1086 0292 0000 0000 		.long	.LASF29
 1087 0296 01        		.byte	0x1
 1088 0297 88        		.byte	0x88
 1089 0298 01        		.byte	0x1
 1090 0299 B600 0000 		.long	0xb6
 1091 029d 0000 0000 		.long	.LFB10
 1092 02a1 0000 0000 		.long	.LFE10
 1093 02a5 02        		.byte	0x2
 1094 02a6 90        		.byte	0x90
 1095 02a7 20        		.uleb128 0x20
 1096 02a8 BC02 0000 		.long	0x2bc
 1097 02ac 0F        		.uleb128 0xf
 1098 02ad 0000 0000 		.long	.LASF30
 1099 02b1 01        		.byte	0x1
 1100 02b2 87        		.byte	0x87
 1101 02b3 BC02 0000 		.long	0x2bc
 1102 02b7 0000 0000 		.long	.LLST16
 1103 02bb 00        		.byte	0x0
 1104 02bc 06        		.uleb128 0x6
 1105 02bd 02        		.byte	0x2
 1106 02be B600 0000 		.long	0xb6
 1107 02c2 17        		.uleb128 0x17
 1108 02c3 01        		.byte	0x1
 1109 02c4 0000 0000 		.long	.LASF31
 1110 02c8 01        		.byte	0x1
 1111 02c9 7E        		.byte	0x7e
 1112 02ca 01        		.byte	0x1
 1113 02cb 2F00 0000 		.long	0x2f
 1114 02cf 0000 0000 		.long	.LFB9
 1115 02d3 0000 0000 		.long	.LFE9
 1116 02d7 02        		.byte	0x2
 1117 02d8 90        		.byte	0x90
 1118 02d9 20        		.uleb128 0x20
 1119 02da EC02 0000 		.long	0x2ec
 1120 02de 1A        		.uleb128 0x1a
 1121 02df 6300      		.string	"c"
 1122 02e1 01        		.byte	0x1
 1123 02e2 7F        		.byte	0x7f
 1124 02e3 B600 0000 		.long	0xb6
 1125 02e7 0000 0000 		.long	.LLST18
 1126 02eb 00        		.byte	0x0
 1127 02ec 14        		.uleb128 0x14
 1128 02ed 01        		.byte	0x1
 1129 02ee 0000 0000 		.long	.LASF32
 1130 02f2 01        		.byte	0x1
 1131 02f3 43        		.byte	0x43
 1132 02f4 01        		.byte	0x1
 1133 02f5 0000 0000 		.long	.LFB3
 1134 02f9 0000 0000 		.long	.LFE3
 1135 02fd 02        		.byte	0x2
 1136 02fe 90        		.byte	0x90
 1137 02ff 20        		.uleb128 0x20
 1138 0300 14        		.uleb128 0x14
 1139 0301 01        		.byte	0x1
 1140 0302 0000 0000 		.long	.LASF33
GAS LISTING C:\Users\Jason\AppData\Local\Temp/ccHKK7pe.s 			page 21


 1141 0306 01        		.byte	0x1
 1142 0307 2D        		.byte	0x2d
 1143 0308 01        		.byte	0x1
 1144 0309 0000 0000 		.long	.LFB2
 1145 030d 0000 0000 		.long	.LFE2
 1146 0311 02        		.byte	0x2
 1147 0312 90        		.byte	0x90
 1148 0313 20        		.uleb128 0x20
 1149 0314 1B        		.uleb128 0x1b
 1150 0315 DE00 0000 		.long	0xde
 1151 0319 2403 0000 		.long	0x324
 1152 031d 1C        		.uleb128 0x1c
 1153 031e 2403 0000 		.long	0x324
 1154 0322 3F        		.byte	0x3f
 1155 0323 00        		.byte	0x0
 1156 0324 1D        		.uleb128 0x1d
 1157 0325 02        		.byte	0x2
 1158 0326 07        		.byte	0x7
 1159 0327 1E        		.uleb128 0x1e
 1160 0328 0000 0000 		.long	.LASF34
 1161 032c 01        		.byte	0x1
 1162 032d 24        		.byte	0x24
 1163 032e 1403 0000 		.long	0x314
 1164 0332 05        		.byte	0x5
 1165 0333 03        		.byte	0x3
 1166 0334 0000 0000 		.long	uartRxData
 1167 0338 1E        		.uleb128 0x1e
 1168 0339 0000 0000 		.long	.LASF35
 1169 033d 01        		.byte	0x1
 1170 033e 25        		.byte	0x25
 1171 033f 1403 0000 		.long	0x314
 1172 0343 05        		.byte	0x5
 1173 0344 03        		.byte	0x3
 1174 0345 0000 0000 		.long	uartTxData
 1175 0349 1E        		.uleb128 0x1e
 1176 034a 0000 0000 		.long	.LASF36
 1177 034e 01        		.byte	0x1
 1178 034f 29        		.byte	0x29
 1179 0350 5A03 0000 		.long	0x35a
 1180 0354 05        		.byte	0x5
 1181 0355 03        		.byte	0x3
 1182 0356 0000 0000 		.long	UartRxFunc
 1183 035a 1F        		.uleb128 0x1f
 1184 035b E500 0000 		.long	0xe5
 1185 035f 20        		.uleb128 0x20
 1186 0360 0000 0000 		.long	.LASF37
 1187 0364 01        		.byte	0x1
 1188 0365 1A        		.byte	0x1a
 1189 0366 7103 0000 		.long	0x371
 1190 036a 01        		.byte	0x1
 1191 036b 05        		.byte	0x5
 1192 036c 03        		.byte	0x3
 1193 036d 0000 0000 		.long	uartReadyTx
 1194 0371 1F        		.uleb128 0x1f
 1195 0372 B600 0000 		.long	0xb6
 1196 0376 20        		.uleb128 0x20
 1197 0377 0000 0000 		.long	.LASF38
GAS LISTING C:\Users\Jason\AppData\Local\Temp/ccHKK7pe.s 			page 22


 1198 037b 01        		.byte	0x1
 1199 037c 1B        		.byte	0x1b
 1200 037d 7103 0000 		.long	0x371
 1201 0381 01        		.byte	0x1
 1202 0382 05        		.byte	0x5
 1203 0383 03        		.byte	0x3
 1204 0384 0000 0000 		.long	uartBufferedTx
 1205 0388 20        		.uleb128 0x20
 1206 0389 0000 0000 		.long	.LASF39
 1207 038d 01        		.byte	0x1
 1208 038e 1D        		.byte	0x1d
 1209 038f AB00 0000 		.long	0xab
 1210 0393 01        		.byte	0x1
 1211 0394 05        		.byte	0x5
 1212 0395 03        		.byte	0x3
 1213 0396 0000 0000 		.long	uartRxBuffer
 1214 039a 20        		.uleb128 0x20
 1215 039b 0000 0000 		.long	.LASF40
 1216 039f 01        		.byte	0x1
 1217 03a0 1E        		.byte	0x1e
 1218 03a1 AB00 0000 		.long	0xab
 1219 03a5 01        		.byte	0x1
 1220 03a6 05        		.byte	0x5
 1221 03a7 03        		.byte	0x3
 1222 03a8 0000 0000 		.long	uartTxBuffer
 1223 03ac 20        		.uleb128 0x20
 1224 03ad 0000 0000 		.long	.LASF41
 1225 03b1 01        		.byte	0x1
 1226 03b2 1F        		.byte	0x1f
 1227 03b3 A400 0000 		.long	0xa4
 1228 03b7 01        		.byte	0x1
 1229 03b8 05        		.byte	0x5
 1230 03b9 03        		.byte	0x3
 1231 03ba 0000 0000 		.long	uartRxOverflow
 1232 03be 00        		.byte	0x0
 1233               		.section	.debug_abbrev
 1234 0000 01        		.uleb128 0x1
 1235 0001 11        		.uleb128 0x11
 1236 0002 01        		.byte	0x1
 1237 0003 25        		.uleb128 0x25
 1238 0004 0E        		.uleb128 0xe
 1239 0005 13        		.uleb128 0x13
 1240 0006 0B        		.uleb128 0xb
 1241 0007 03        		.uleb128 0x3
 1242 0008 0E        		.uleb128 0xe
 1243 0009 11        		.uleb128 0x11
 1244 000a 01        		.uleb128 0x1
 1245 000b 12        		.uleb128 0x12
 1246 000c 01        		.uleb128 0x1
 1247 000d 10        		.uleb128 0x10
 1248 000e 06        		.uleb128 0x6
 1249 000f 00        		.byte	0x0
 1250 0010 00        		.byte	0x0
 1251 0011 02        		.uleb128 0x2
 1252 0012 24        		.uleb128 0x24
 1253 0013 00        		.byte	0x0
 1254 0014 0B        		.uleb128 0xb
GAS LISTING C:\Users\Jason\AppData\Local\Temp/ccHKK7pe.s 			page 23


 1255 0015 0B        		.uleb128 0xb
 1256 0016 3E        		.uleb128 0x3e
 1257 0017 0B        		.uleb128 0xb
 1258 0018 03        		.uleb128 0x3
 1259 0019 0E        		.uleb128 0xe
 1260 001a 00        		.byte	0x0
 1261 001b 00        		.byte	0x0
 1262 001c 03        		.uleb128 0x3
 1263 001d 24        		.uleb128 0x24
 1264 001e 00        		.byte	0x0
 1265 001f 0B        		.uleb128 0xb
 1266 0020 0B        		.uleb128 0xb
 1267 0021 3E        		.uleb128 0x3e
 1268 0022 0B        		.uleb128 0xb
 1269 0023 03        		.uleb128 0x3
 1270 0024 08        		.uleb128 0x8
 1271 0025 00        		.byte	0x0
 1272 0026 00        		.byte	0x0
 1273 0027 04        		.uleb128 0x4
 1274 0028 13        		.uleb128 0x13
 1275 0029 01        		.byte	0x1
 1276 002a 03        		.uleb128 0x3
 1277 002b 0E        		.uleb128 0xe
 1278 002c 0B        		.uleb128 0xb
 1279 002d 0B        		.uleb128 0xb
 1280 002e 3A        		.uleb128 0x3a
 1281 002f 0B        		.uleb128 0xb
 1282 0030 3B        		.uleb128 0x3b
 1283 0031 0B        		.uleb128 0xb
 1284 0032 01        		.uleb128 0x1
 1285 0033 13        		.uleb128 0x13
 1286 0034 00        		.byte	0x0
 1287 0035 00        		.byte	0x0
 1288 0036 05        		.uleb128 0x5
 1289 0037 0D        		.uleb128 0xd
 1290 0038 00        		.byte	0x0
 1291 0039 03        		.uleb128 0x3
 1292 003a 0E        		.uleb128 0xe
 1293 003b 3A        		.uleb128 0x3a
 1294 003c 0B        		.uleb128 0xb
 1295 003d 3B        		.uleb128 0x3b
 1296 003e 0B        		.uleb128 0xb
 1297 003f 49        		.uleb128 0x49
 1298 0040 13        		.uleb128 0x13
 1299 0041 38        		.uleb128 0x38
 1300 0042 0A        		.uleb128 0xa
 1301 0043 00        		.byte	0x0
 1302 0044 00        		.byte	0x0
 1303 0045 06        		.uleb128 0x6
 1304 0046 0F        		.uleb128 0xf
 1305 0047 00        		.byte	0x0
 1306 0048 0B        		.uleb128 0xb
 1307 0049 0B        		.uleb128 0xb
 1308 004a 49        		.uleb128 0x49
 1309 004b 13        		.uleb128 0x13
 1310 004c 00        		.byte	0x0
 1311 004d 00        		.byte	0x0
GAS LISTING C:\Users\Jason\AppData\Local\Temp/ccHKK7pe.s 			page 24


 1312 004e 07        		.uleb128 0x7
 1313 004f 16        		.uleb128 0x16
 1314 0050 00        		.byte	0x0
 1315 0051 03        		.uleb128 0x3
 1316 0052 0E        		.uleb128 0xe
 1317 0053 3A        		.uleb128 0x3a
 1318 0054 0B        		.uleb128 0xb
 1319 0055 3B        		.uleb128 0x3b
 1320 0056 0B        		.uleb128 0xb
 1321 0057 49        		.uleb128 0x49
 1322 0058 13        		.uleb128 0x13
 1323 0059 00        		.byte	0x0
 1324 005a 00        		.byte	0x0
 1325 005b 08        		.uleb128 0x8
 1326 005c 16        		.uleb128 0x16
 1327 005d 00        		.byte	0x0
 1328 005e 03        		.uleb128 0x3
 1329 005f 08        		.uleb128 0x8
 1330 0060 3A        		.uleb128 0x3a
 1331 0061 0B        		.uleb128 0xb
 1332 0062 3B        		.uleb128 0x3b
 1333 0063 0B        		.uleb128 0xb
 1334 0064 49        		.uleb128 0x49
 1335 0065 13        		.uleb128 0x13
 1336 0066 00        		.byte	0x0
 1337 0067 00        		.byte	0x0
 1338 0068 09        		.uleb128 0x9
 1339 0069 15        		.uleb128 0x15
 1340 006a 01        		.byte	0x1
 1341 006b 27        		.uleb128 0x27
 1342 006c 0C        		.uleb128 0xc
 1343 006d 01        		.uleb128 0x1
 1344 006e 13        		.uleb128 0x13
 1345 006f 00        		.byte	0x0
 1346 0070 00        		.byte	0x0
 1347 0071 0A        		.uleb128 0xa
 1348 0072 05        		.uleb128 0x5
 1349 0073 00        		.byte	0x0
 1350 0074 49        		.uleb128 0x49
 1351 0075 13        		.uleb128 0x13
 1352 0076 00        		.byte	0x0
 1353 0077 00        		.byte	0x0
 1354 0078 0B        		.uleb128 0xb
 1355 0079 2E        		.uleb128 0x2e
 1356 007a 01        		.byte	0x1
 1357 007b 3F        		.uleb128 0x3f
 1358 007c 0C        		.uleb128 0xc
 1359 007d 03        		.uleb128 0x3
 1360 007e 0E        		.uleb128 0xe
 1361 007f 3A        		.uleb128 0x3a
 1362 0080 0B        		.uleb128 0xb
 1363 0081 3B        		.uleb128 0x3b
 1364 0082 0B        		.uleb128 0xb
 1365 0083 27        		.uleb128 0x27
 1366 0084 0C        		.uleb128 0xc
 1367 0085 20        		.uleb128 0x20
 1368 0086 0B        		.uleb128 0xb
GAS LISTING C:\Users\Jason\AppData\Local\Temp/ccHKK7pe.s 			page 25


 1369 0087 01        		.uleb128 0x1
 1370 0088 13        		.uleb128 0x13
 1371 0089 00        		.byte	0x0
 1372 008a 00        		.byte	0x0
 1373 008b 0C        		.uleb128 0xc
 1374 008c 05        		.uleb128 0x5
 1375 008d 00        		.byte	0x0
 1376 008e 03        		.uleb128 0x3
 1377 008f 0E        		.uleb128 0xe
 1378 0090 3A        		.uleb128 0x3a
 1379 0091 0B        		.uleb128 0xb
 1380 0092 3B        		.uleb128 0x3b
 1381 0093 0B        		.uleb128 0xb
 1382 0094 49        		.uleb128 0x49
 1383 0095 13        		.uleb128 0x13
 1384 0096 00        		.byte	0x0
 1385 0097 00        		.byte	0x0
 1386 0098 0D        		.uleb128 0xd
 1387 0099 2E        		.uleb128 0x2e
 1388 009a 01        		.byte	0x1
 1389 009b 3F        		.uleb128 0x3f
 1390 009c 0C        		.uleb128 0xc
 1391 009d 03        		.uleb128 0x3
 1392 009e 0E        		.uleb128 0xe
 1393 009f 3A        		.uleb128 0x3a
 1394 00a0 0B        		.uleb128 0xb
 1395 00a1 3B        		.uleb128 0x3b
 1396 00a2 0B        		.uleb128 0xb
 1397 00a3 27        		.uleb128 0x27
 1398 00a4 0C        		.uleb128 0xc
 1399 00a5 11        		.uleb128 0x11
 1400 00a6 01        		.uleb128 0x1
 1401 00a7 12        		.uleb128 0x12
 1402 00a8 01        		.uleb128 0x1
 1403 00a9 40        		.uleb128 0x40
 1404 00aa 0A        		.uleb128 0xa
 1405 00ab 01        		.uleb128 0x1
 1406 00ac 13        		.uleb128 0x13
 1407 00ad 00        		.byte	0x0
 1408 00ae 00        		.byte	0x0
 1409 00af 0E        		.uleb128 0xe
 1410 00b0 05        		.uleb128 0x5
 1411 00b1 00        		.byte	0x0
 1412 00b2 03        		.uleb128 0x3
 1413 00b3 0E        		.uleb128 0xe
 1414 00b4 3A        		.uleb128 0x3a
 1415 00b5 0B        		.uleb128 0xb
 1416 00b6 3B        		.uleb128 0x3b
 1417 00b7 0B        		.uleb128 0xb
 1418 00b8 49        		.uleb128 0x49
 1419 00b9 13        		.uleb128 0x13
 1420 00ba 02        		.uleb128 0x2
 1421 00bb 0A        		.uleb128 0xa
 1422 00bc 00        		.byte	0x0
 1423 00bd 00        		.byte	0x0
 1424 00be 0F        		.uleb128 0xf
 1425 00bf 05        		.uleb128 0x5
GAS LISTING C:\Users\Jason\AppData\Local\Temp/ccHKK7pe.s 			page 26


 1426 00c0 00        		.byte	0x0
 1427 00c1 03        		.uleb128 0x3
 1428 00c2 0E        		.uleb128 0xe
 1429 00c3 3A        		.uleb128 0x3a
 1430 00c4 0B        		.uleb128 0xb
 1431 00c5 3B        		.uleb128 0x3b
 1432 00c6 0B        		.uleb128 0xb
 1433 00c7 49        		.uleb128 0x49
 1434 00c8 13        		.uleb128 0x13
 1435 00c9 02        		.uleb128 0x2
 1436 00ca 06        		.uleb128 0x6
 1437 00cb 00        		.byte	0x0
 1438 00cc 00        		.byte	0x0
 1439 00cd 10        		.uleb128 0x10
 1440 00ce 34        		.uleb128 0x34
 1441 00cf 00        		.byte	0x0
 1442 00d0 03        		.uleb128 0x3
 1443 00d1 0E        		.uleb128 0xe
 1444 00d2 3A        		.uleb128 0x3a
 1445 00d3 0B        		.uleb128 0xb
 1446 00d4 3B        		.uleb128 0x3b
 1447 00d5 0B        		.uleb128 0xb
 1448 00d6 49        		.uleb128 0x49
 1449 00d7 13        		.uleb128 0x13
 1450 00d8 00        		.byte	0x0
 1451 00d9 00        		.byte	0x0
 1452 00da 11        		.uleb128 0x11
 1453 00db 2E        		.uleb128 0x2e
 1454 00dc 00        		.byte	0x0
 1455 00dd 3F        		.uleb128 0x3f
 1456 00de 0C        		.uleb128 0xc
 1457 00df 03        		.uleb128 0x3
 1458 00e0 0E        		.uleb128 0xe
 1459 00e1 3A        		.uleb128 0x3a
 1460 00e2 0B        		.uleb128 0xb
 1461 00e3 3B        		.uleb128 0x3b
 1462 00e4 0B        		.uleb128 0xb
 1463 00e5 27        		.uleb128 0x27
 1464 00e6 0C        		.uleb128 0xc
 1465 00e7 49        		.uleb128 0x49
 1466 00e8 13        		.uleb128 0x13
 1467 00e9 11        		.uleb128 0x11
 1468 00ea 01        		.uleb128 0x1
 1469 00eb 12        		.uleb128 0x12
 1470 00ec 01        		.uleb128 0x1
 1471 00ed 40        		.uleb128 0x40
 1472 00ee 0A        		.uleb128 0xa
 1473 00ef 00        		.byte	0x0
 1474 00f0 00        		.byte	0x0
 1475 00f1 12        		.uleb128 0x12
 1476 00f2 2E        		.uleb128 0x2e
 1477 00f3 01        		.byte	0x1
 1478 00f4 31        		.uleb128 0x31
 1479 00f5 13        		.uleb128 0x13
 1480 00f6 11        		.uleb128 0x11
 1481 00f7 01        		.uleb128 0x1
 1482 00f8 12        		.uleb128 0x12
GAS LISTING C:\Users\Jason\AppData\Local\Temp/ccHKK7pe.s 			page 27


 1483 00f9 01        		.uleb128 0x1
 1484 00fa 40        		.uleb128 0x40
 1485 00fb 0A        		.uleb128 0xa
 1486 00fc 01        		.uleb128 0x1
 1487 00fd 13        		.uleb128 0x13
 1488 00fe 00        		.byte	0x0
 1489 00ff 00        		.byte	0x0
 1490 0100 13        		.uleb128 0x13
 1491 0101 05        		.uleb128 0x5
 1492 0102 00        		.byte	0x0
 1493 0103 31        		.uleb128 0x31
 1494 0104 13        		.uleb128 0x13
 1495 0105 02        		.uleb128 0x2
 1496 0106 06        		.uleb128 0x6
 1497 0107 00        		.byte	0x0
 1498 0108 00        		.byte	0x0
 1499 0109 14        		.uleb128 0x14
 1500 010a 2E        		.uleb128 0x2e
 1501 010b 00        		.byte	0x0
 1502 010c 3F        		.uleb128 0x3f
 1503 010d 0C        		.uleb128 0xc
 1504 010e 03        		.uleb128 0x3
 1505 010f 0E        		.uleb128 0xe
 1506 0110 3A        		.uleb128 0x3a
 1507 0111 0B        		.uleb128 0xb
 1508 0112 3B        		.uleb128 0x3b
 1509 0113 0B        		.uleb128 0xb
 1510 0114 27        		.uleb128 0x27
 1511 0115 0C        		.uleb128 0xc
 1512 0116 11        		.uleb128 0x11
 1513 0117 01        		.uleb128 0x1
 1514 0118 12        		.uleb128 0x12
 1515 0119 01        		.uleb128 0x1
 1516 011a 40        		.uleb128 0x40
 1517 011b 0A        		.uleb128 0xa
 1518 011c 00        		.byte	0x0
 1519 011d 00        		.byte	0x0
 1520 011e 15        		.uleb128 0x15
 1521 011f 2E        		.uleb128 0x2e
 1522 0120 01        		.byte	0x1
 1523 0121 3F        		.uleb128 0x3f
 1524 0122 0C        		.uleb128 0xc
 1525 0123 03        		.uleb128 0x3
 1526 0124 0E        		.uleb128 0xe
 1527 0125 3A        		.uleb128 0x3a
 1528 0126 0B        		.uleb128 0xb
 1529 0127 3B        		.uleb128 0x3b
 1530 0128 05        		.uleb128 0x5
 1531 0129 27        		.uleb128 0x27
 1532 012a 0C        		.uleb128 0xc
 1533 012b 11        		.uleb128 0x11
 1534 012c 01        		.uleb128 0x1
 1535 012d 12        		.uleb128 0x12
 1536 012e 01        		.uleb128 0x1
 1537 012f 40        		.uleb128 0x40
 1538 0130 0A        		.uleb128 0xa
 1539 0131 01        		.uleb128 0x1
GAS LISTING C:\Users\Jason\AppData\Local\Temp/ccHKK7pe.s 			page 28


 1540 0132 13        		.uleb128 0x13
 1541 0133 00        		.byte	0x0
 1542 0134 00        		.byte	0x0
 1543 0135 16        		.uleb128 0x16
 1544 0136 34        		.uleb128 0x34
 1545 0137 00        		.byte	0x0
 1546 0138 03        		.uleb128 0x3
 1547 0139 08        		.uleb128 0x8
 1548 013a 3A        		.uleb128 0x3a
 1549 013b 0B        		.uleb128 0xb
 1550 013c 3B        		.uleb128 0x3b
 1551 013d 05        		.uleb128 0x5
 1552 013e 49        		.uleb128 0x49
 1553 013f 13        		.uleb128 0x13
 1554 0140 02        		.uleb128 0x2
 1555 0141 06        		.uleb128 0x6
 1556 0142 00        		.byte	0x0
 1557 0143 00        		.byte	0x0
 1558 0144 17        		.uleb128 0x17
 1559 0145 2E        		.uleb128 0x2e
 1560 0146 01        		.byte	0x1
 1561 0147 3F        		.uleb128 0x3f
 1562 0148 0C        		.uleb128 0xc
 1563 0149 03        		.uleb128 0x3
 1564 014a 0E        		.uleb128 0xe
 1565 014b 3A        		.uleb128 0x3a
 1566 014c 0B        		.uleb128 0xb
 1567 014d 3B        		.uleb128 0x3b
 1568 014e 0B        		.uleb128 0xb
 1569 014f 27        		.uleb128 0x27
 1570 0150 0C        		.uleb128 0xc
 1571 0151 49        		.uleb128 0x49
 1572 0152 13        		.uleb128 0x13
 1573 0153 11        		.uleb128 0x11
 1574 0154 01        		.uleb128 0x1
 1575 0155 12        		.uleb128 0x12
 1576 0156 01        		.uleb128 0x1
 1577 0157 40        		.uleb128 0x40
 1578 0158 0A        		.uleb128 0xa
 1579 0159 01        		.uleb128 0x1
 1580 015a 13        		.uleb128 0x13
 1581 015b 00        		.byte	0x0
 1582 015c 00        		.byte	0x0
 1583 015d 18        		.uleb128 0x18
 1584 015e 1D        		.uleb128 0x1d
 1585 015f 01        		.byte	0x1
 1586 0160 31        		.uleb128 0x31
 1587 0161 13        		.uleb128 0x13
 1588 0162 11        		.uleb128 0x11
 1589 0163 01        		.uleb128 0x1
 1590 0164 12        		.uleb128 0x12
 1591 0165 01        		.uleb128 0x1
 1592 0166 58        		.uleb128 0x58
 1593 0167 0B        		.uleb128 0xb
 1594 0168 59        		.uleb128 0x59
 1595 0169 0B        		.uleb128 0xb
 1596 016a 00        		.byte	0x0
GAS LISTING C:\Users\Jason\AppData\Local\Temp/ccHKK7pe.s 			page 29


 1597 016b 00        		.byte	0x0
 1598 016c 19        		.uleb128 0x19
 1599 016d 05        		.uleb128 0x5
 1600 016e 00        		.byte	0x0
 1601 016f 31        		.uleb128 0x31
 1602 0170 13        		.uleb128 0x13
 1603 0171 00        		.byte	0x0
 1604 0172 00        		.byte	0x0
 1605 0173 1A        		.uleb128 0x1a
 1606 0174 34        		.uleb128 0x34
 1607 0175 00        		.byte	0x0
 1608 0176 03        		.uleb128 0x3
 1609 0177 08        		.uleb128 0x8
 1610 0178 3A        		.uleb128 0x3a
 1611 0179 0B        		.uleb128 0xb
 1612 017a 3B        		.uleb128 0x3b
 1613 017b 0B        		.uleb128 0xb
 1614 017c 49        		.uleb128 0x49
 1615 017d 13        		.uleb128 0x13
 1616 017e 02        		.uleb128 0x2
 1617 017f 06        		.uleb128 0x6
 1618 0180 00        		.byte	0x0
 1619 0181 00        		.byte	0x0
 1620 0182 1B        		.uleb128 0x1b
 1621 0183 01        		.uleb128 0x1
 1622 0184 01        		.byte	0x1
 1623 0185 49        		.uleb128 0x49
 1624 0186 13        		.uleb128 0x13
 1625 0187 01        		.uleb128 0x1
 1626 0188 13        		.uleb128 0x13
 1627 0189 00        		.byte	0x0
 1628 018a 00        		.byte	0x0
 1629 018b 1C        		.uleb128 0x1c
 1630 018c 21        		.uleb128 0x21
 1631 018d 00        		.byte	0x0
 1632 018e 49        		.uleb128 0x49
 1633 018f 13        		.uleb128 0x13
 1634 0190 2F        		.uleb128 0x2f
 1635 0191 0B        		.uleb128 0xb
 1636 0192 00        		.byte	0x0
 1637 0193 00        		.byte	0x0
 1638 0194 1D        		.uleb128 0x1d
 1639 0195 24        		.uleb128 0x24
 1640 0196 00        		.byte	0x0
 1641 0197 0B        		.uleb128 0xb
 1642 0198 0B        		.uleb128 0xb
 1643 0199 3E        		.uleb128 0x3e
 1644 019a 0B        		.uleb128 0xb
 1645 019b 00        		.byte	0x0
 1646 019c 00        		.byte	0x0
 1647 019d 1E        		.uleb128 0x1e
 1648 019e 34        		.uleb128 0x34
 1649 019f 00        		.byte	0x0
 1650 01a0 03        		.uleb128 0x3
 1651 01a1 0E        		.uleb128 0xe
 1652 01a2 3A        		.uleb128 0x3a
 1653 01a3 0B        		.uleb128 0xb
GAS LISTING C:\Users\Jason\AppData\Local\Temp/ccHKK7pe.s 			page 30


 1654 01a4 3B        		.uleb128 0x3b
 1655 01a5 0B        		.uleb128 0xb
 1656 01a6 49        		.uleb128 0x49
 1657 01a7 13        		.uleb128 0x13
 1658 01a8 02        		.uleb128 0x2
 1659 01a9 0A        		.uleb128 0xa
 1660 01aa 00        		.byte	0x0
 1661 01ab 00        		.byte	0x0
 1662 01ac 1F        		.uleb128 0x1f
 1663 01ad 35        		.uleb128 0x35
 1664 01ae 00        		.byte	0x0
 1665 01af 49        		.uleb128 0x49
 1666 01b0 13        		.uleb128 0x13
 1667 01b1 00        		.byte	0x0
 1668 01b2 00        		.byte	0x0
 1669 01b3 20        		.uleb128 0x20
 1670 01b4 34        		.uleb128 0x34
 1671 01b5 00        		.byte	0x0
 1672 01b6 03        		.uleb128 0x3
 1673 01b7 0E        		.uleb128 0xe
 1674 01b8 3A        		.uleb128 0x3a
 1675 01b9 0B        		.uleb128 0xb
 1676 01ba 3B        		.uleb128 0x3b
 1677 01bb 0B        		.uleb128 0xb
 1678 01bc 49        		.uleb128 0x49
 1679 01bd 13        		.uleb128 0x13
 1680 01be 3F        		.uleb128 0x3f
 1681 01bf 0C        		.uleb128 0xc
 1682 01c0 02        		.uleb128 0x2
 1683 01c1 0A        		.uleb128 0xa
 1684 01c2 00        		.byte	0x0
 1685 01c3 00        		.byte	0x0
 1686 01c4 00        		.byte	0x0
 1687               		.section	.debug_pubnames,"",@progbits
 1688 0000 9001 0000 		.long	0x190
 1689 0004 0200      		.word	0x2
 1690 0006 0000 0000 		.long	.Ldebug_info0
 1691 000a BF03 0000 		.long	0x3bf
 1692 000e 1C01 0000 		.long	0x11c
 1693 0012 7561 7274 		.string	"uartSetRxHandler"
 1693      5365 7452 
 1693      7848 616E 
 1693      646C 6572 
 1693      00
 1694 0023 4701 0000 		.long	0x147
 1695 0027 7561 7274 		.string	"uartSetBaudRate"
 1695      5365 7442 
 1695      6175 6452 
 1695      6174 6500 
 1696 0037 7A01 0000 		.long	0x17a
 1697 003b 7561 7274 		.string	"uartGetRxBuffer"
 1697      4765 7452 
 1697      7842 7566 
 1697      6665 7200 
 1698 004b 9801 0000 		.long	0x198
 1699 004f 7561 7274 		.string	"uartGetTxBuffer"
 1699      4765 7454 
GAS LISTING C:\Users\Jason\AppData\Local\Temp/ccHKK7pe.s 			page 31


 1699      7842 7566 
 1699      6665 7200 
 1700 005f B001 0000 		.long	0x1b0
 1701 0063 7561 7274 		.string	"uartSendByte"
 1701      5365 6E64 
 1701      4279 7465 
 1701      00
 1702 0070 CE01 0000 		.long	0x1ce
 1703 0074 7561 7274 		.string	"uartFlushReceiveBuffer"
 1703      466C 7573 
 1703      6852 6563 
 1703      6569 7665 
 1703      4275 6666 
 1704 008b E201 0000 		.long	0x1e2
 1705 008f 7561 7274 		.string	"uartReceiveBufferIsEmpty"
 1705      5265 6365 
 1705      6976 6542 
 1705      7566 6665 
 1705      7249 7345 
 1706 00a8 FA01 0000 		.long	0x1fa
 1707 00ac 5F5F 7665 		.string	"__vector_11"
 1707      6374 6F72 
 1707      5F31 3100 
 1708 00b8 2202 0000 		.long	0x222
 1709 00bc 7561 7274 		.string	"uartAddToTxBuffer"
 1709      4164 6454 
 1709      6F54 7842 
 1709      7566 6665 
 1709      7200 
 1710 00ce 4E02 0000 		.long	0x24e
 1711 00d2 5F5F 7665 		.string	"__vector_13"
 1711      6374 6F72 
 1711      5F31 3300 
 1712 00de 6202 0000 		.long	0x262
 1713 00e2 7561 7274 		.string	"uartSendTxBuffer"
 1713      5365 6E64 
 1713      5478 4275 
 1713      6666 6572 
 1713      00
 1714 00f3 9002 0000 		.long	0x290
 1715 00f7 7561 7274 		.string	"uartReceiveByte"
 1715      5265 6365 
 1715      6976 6542 
 1715      7974 6500 
 1716 0107 C202 0000 		.long	0x2c2
 1717 010b 7561 7274 		.string	"uartGetByte"
 1717      4765 7442 
 1717      7974 6500 
 1718 0117 EC02 0000 		.long	0x2ec
 1719 011b 7561 7274 		.string	"uartInitBuffers"
 1719      496E 6974 
 1719      4275 6666 
 1719      6572 7300 
 1720 012b 0003 0000 		.long	0x300
 1721 012f 7561 7274 		.string	"uartInit"
 1721      496E 6974 
 1721      00
GAS LISTING C:\Users\Jason\AppData\Local\Temp/ccHKK7pe.s 			page 32


 1722 0138 5F03 0000 		.long	0x35f
 1723 013c 7561 7274 		.string	"uartReadyTx"
 1723      5265 6164 
 1723      7954 7800 
 1724 0148 7603 0000 		.long	0x376
 1725 014c 7561 7274 		.string	"uartBufferedTx"
 1725      4275 6666 
 1725      6572 6564 
 1725      5478 00
 1726 015b 8803 0000 		.long	0x388
 1727 015f 7561 7274 		.string	"uartRxBuffer"
 1727      5278 4275 
 1727      6666 6572 
 1727      00
 1728 016c 9A03 0000 		.long	0x39a
 1729 0170 7561 7274 		.string	"uartTxBuffer"
 1729      5478 4275 
 1729      6666 6572 
 1729      00
 1730 017d AC03 0000 		.long	0x3ac
 1731 0181 7561 7274 		.string	"uartRxOverflow"
 1731      5278 4F76 
 1731      6572 666C 
 1731      6F77 00
 1732 0190 0000 0000 		.long	0x0
 1733               		.section	.debug_aranges,"",@progbits
 1734 0000 1C00 0000 		.long	0x1c
 1735 0004 0200      		.word	0x2
 1736 0006 0000 0000 		.long	.Ldebug_info0
 1737 000a 04        		.byte	0x4
 1738 000b 00        		.byte	0x0
 1739 000c 0000      		.word	0x0
 1740 000e 0000      		.word	0x0
 1741 0010 0000 0000 		.long	.Ltext0
 1742 0014 4602 0000 		.long	.Letext0-.Ltext0
 1743 0018 0000 0000 		.long	0x0
 1744 001c 0000 0000 		.long	0x0
 1745               		.section	.debug_line
 1746 0000 8A02 0000 		.long	.LELT0-.LSLT0
 1747               	.LSLT0:
 1748 0004 0200      		.word	0x2
 1749 0006 4100 0000 		.long	.LELTP0-.LASLTP0
 1750               	.LASLTP0:
 1751 000a 01        		.byte	0x1
 1752 000b 01        		.byte	0x1
 1753 000c F6        		.byte	0xf6
 1754 000d F5        		.byte	0xf5
 1755 000e 0A        		.byte	0xa
 1756 000f 00        		.byte	0x0
 1757 0010 01        		.byte	0x1
 1758 0011 01        		.byte	0x1
 1759 0012 01        		.byte	0x1
 1760 0013 01        		.byte	0x1
 1761 0014 00        		.byte	0x0
 1762 0015 00        		.byte	0x0
 1763 0016 00        		.byte	0x0
 1764 0017 01        		.byte	0x1
GAS LISTING C:\Users\Jason\AppData\Local\Temp/ccHKK7pe.s 			page 33


 1765 0018 433A 5C41 		.ascii	"C:\\AVRlib"
 1765      5652 6C69 
 1765      62
 1766 0021 00        		.byte	0
 1767 0022 00        		.byte	0x0
 1768 0023 7561 7274 		.string	"uart.c"
 1768      2E63 00
 1769 002a 01        		.uleb128 0x1
 1770 002b 00        		.uleb128 0x0
 1771 002c 00        		.uleb128 0x0
 1772 002d 6275 6666 		.string	"buffer.h"
 1772      6572 2E68 
 1772      00
 1773 0036 01        		.uleb128 0x1
 1774 0037 00        		.uleb128 0x0
 1775 0038 00        		.uleb128 0x0
 1776 0039 6176 726C 		.string	"avrlibtypes.h"
 1776      6962 7479 
 1776      7065 732E 
 1776      6800 
 1777 0047 01        		.uleb128 0x1
 1778 0048 00        		.uleb128 0x0
 1779 0049 00        		.uleb128 0x0
 1780 004a 00        		.byte	0x0
 1781               	.LELTP0:
 1782 004b 00        		.byte	0x0
 1783 004c 05        		.uleb128 0x5
 1784 004d 02        		.byte	0x2
 1785 004e 0000 0000 		.long	.LM1
 1786 0052 66        		.byte	0x66
 1787 0053 00        		.byte	0x0
 1788 0054 05        		.uleb128 0x5
 1789 0055 02        		.byte	0x2
 1790 0056 0000 0000 		.long	.LM2
 1791 005a 16        		.byte	0x16
 1792 005b 00        		.byte	0x0
 1793 005c 05        		.uleb128 0x5
 1794 005d 02        		.byte	0x2
 1795 005e 0000 0000 		.long	.LM3
 1796 0062 15        		.byte	0x15
 1797 0063 00        		.byte	0x0
 1798 0064 05        		.uleb128 0x5
 1799 0065 02        		.byte	0x2
 1800 0066 0000 0000 		.long	.LM4
 1801 006a 18        		.byte	0x18
 1802 006b 00        		.byte	0x0
 1803 006c 05        		.uleb128 0x5
 1804 006d 02        		.byte	0x2
 1805 006e 0000 0000 		.long	.LM5
 1806 0072 17        		.byte	0x17
 1807 0073 00        		.byte	0x0
 1808 0074 05        		.uleb128 0x5
 1809 0075 02        		.byte	0x2
 1810 0076 0000 0000 		.long	.LM6
 1811 007a 18        		.byte	0x18
 1812 007b 00        		.byte	0x0
 1813 007c 05        		.uleb128 0x5
GAS LISTING C:\Users\Jason\AppData\Local\Temp/ccHKK7pe.s 			page 34


 1814 007d 02        		.byte	0x2
 1815 007e 0000 0000 		.long	.LM7
 1816 0082 18        		.byte	0x18
 1817 0083 00        		.byte	0x0
 1818 0084 05        		.uleb128 0x5
 1819 0085 02        		.byte	0x2
 1820 0086 0000 0000 		.long	.LM8
 1821 008a 17        		.byte	0x17
 1822 008b 00        		.byte	0x0
 1823 008c 05        		.uleb128 0x5
 1824 008d 02        		.byte	0x2
 1825 008e 0000 0000 		.long	.LM9
 1826 0092 18        		.byte	0x18
 1827 0093 00        		.byte	0x0
 1828 0094 05        		.uleb128 0x5
 1829 0095 02        		.byte	0x2
 1830 0096 0000 0000 		.long	.LM10
 1831 009a 17        		.byte	0x17
 1832 009b 00        		.byte	0x0
 1833 009c 05        		.uleb128 0x5
 1834 009d 02        		.byte	0x2
 1835 009e 0000 0000 		.long	.LM11
 1836 00a2 18        		.byte	0x18
 1837 00a3 00        		.byte	0x0
 1838 00a4 05        		.uleb128 0x5
 1839 00a5 02        		.byte	0x2
 1840 00a6 0000 0000 		.long	.LM12
 1841 00aa 16        		.byte	0x16
 1842 00ab 00        		.byte	0x0
 1843 00ac 05        		.uleb128 0x5
 1844 00ad 02        		.byte	0x2
 1845 00ae 0000 0000 		.long	.LM13
 1846 00b2 16        		.byte	0x16
 1847 00b3 00        		.byte	0x0
 1848 00b4 05        		.uleb128 0x5
 1849 00b5 02        		.byte	0x2
 1850 00b6 0000 0000 		.long	.LM14
 1851 00ba 16        		.byte	0x16
 1852 00bb 00        		.byte	0x0
 1853 00bc 05        		.uleb128 0x5
 1854 00bd 02        		.byte	0x2
 1855 00be 0000 0000 		.long	.LM15
 1856 00c2 15        		.byte	0x15
 1857 00c3 00        		.byte	0x0
 1858 00c4 05        		.uleb128 0x5
 1859 00c5 02        		.byte	0x2
 1860 00c6 0000 0000 		.long	.LM16
 1861 00ca 3C        		.byte	0x3c
 1862 00cb 00        		.byte	0x0
 1863 00cc 05        		.uleb128 0x5
 1864 00cd 02        		.byte	0x2
 1865 00ce 0000 0000 		.long	.LM17
 1866 00d2 18        		.byte	0x18
 1867 00d3 00        		.byte	0x0
 1868 00d4 05        		.uleb128 0x5
 1869 00d5 02        		.byte	0x2
 1870 00d6 0000 0000 		.long	.LM18
GAS LISTING C:\Users\Jason\AppData\Local\Temp/ccHKK7pe.s 			page 35


 1871 00da 15        		.byte	0x15
 1872 00db 00        		.byte	0x0
 1873 00dc 05        		.uleb128 0x5
 1874 00dd 02        		.byte	0x2
 1875 00de 0000 0000 		.long	.LM19
 1876 00e2 18        		.byte	0x18
 1877 00e3 00        		.byte	0x0
 1878 00e4 05        		.uleb128 0x5
 1879 00e5 02        		.byte	0x2
 1880 00e6 0000 0000 		.long	.LM20
 1881 00ea 15        		.byte	0x15
 1882 00eb 00        		.byte	0x0
 1883 00ec 05        		.uleb128 0x5
 1884 00ed 02        		.byte	0x2
 1885 00ee 0000 0000 		.long	.LM21
 1886 00f2 1C        		.byte	0x1c
 1887 00f3 00        		.byte	0x0
 1888 00f4 05        		.uleb128 0x5
 1889 00f5 02        		.byte	0x2
 1890 00f6 0000 0000 		.long	.LM22
 1891 00fa 63        		.byte	0x63
 1892 00fb 00        		.byte	0x0
 1893 00fc 05        		.uleb128 0x5
 1894 00fd 02        		.byte	0x2
 1895 00fe 0000 0000 		.long	.LM23
 1896 0102 18        		.byte	0x18
 1897 0103 00        		.byte	0x0
 1898 0104 05        		.uleb128 0x5
 1899 0105 02        		.byte	0x2
 1900 0106 0000 0000 		.long	.LM24
 1901 010a 17        		.byte	0x17
 1902 010b 00        		.byte	0x0
 1903 010c 05        		.uleb128 0x5
 1904 010d 02        		.byte	0x2
 1905 010e 0000 0000 		.long	.LM25
 1906 0112 17        		.byte	0x17
 1907 0113 00        		.byte	0x0
 1908 0114 05        		.uleb128 0x5
 1909 0115 02        		.byte	0x2
 1910 0116 0000 0000 		.long	.LM26
 1911 011a 1B        		.byte	0x1b
 1912 011b 00        		.byte	0x0
 1913 011c 05        		.uleb128 0x5
 1914 011d 02        		.byte	0x2
 1915 011e 0000 0000 		.long	.LM27
 1916 0122 18        		.byte	0x18
 1917 0123 00        		.byte	0x0
 1918 0124 05        		.uleb128 0x5
 1919 0125 02        		.byte	0x2
 1920 0126 0000 0000 		.long	.LM28
 1921 012a 17        		.byte	0x17
 1922 012b 00        		.byte	0x0
 1923 012c 05        		.uleb128 0x5
 1924 012d 02        		.byte	0x2
 1925 012e 0000 0000 		.long	.LM29
 1926 0132 03        		.byte	0x3
 1927 0133 9D7F      		.sleb128 -99
GAS LISTING C:\Users\Jason\AppData\Local\Temp/ccHKK7pe.s 			page 36


 1928 0135 01        		.byte	0x1
 1929 0136 00        		.byte	0x0
 1930 0137 05        		.uleb128 0x5
 1931 0138 02        		.byte	0x2
 1932 0139 0000 0000 		.long	.LM30
 1933 013d 16        		.byte	0x16
 1934 013e 00        		.byte	0x0
 1935 013f 05        		.uleb128 0x5
 1936 0140 02        		.byte	0x2
 1937 0141 0000 0000 		.long	.LM31
 1938 0145 15        		.byte	0x15
 1939 0146 00        		.byte	0x0
 1940 0147 05        		.uleb128 0x5
 1941 0148 02        		.byte	0x2
 1942 0149 0000 0000 		.long	.LM32
 1943 014d 40        		.byte	0x40
 1944 014e 00        		.byte	0x0
 1945 014f 05        		.uleb128 0x5
 1946 0150 02        		.byte	0x2
 1947 0151 0000 0000 		.long	.LM33
 1948 0155 16        		.byte	0x16
 1949 0156 00        		.byte	0x0
 1950 0157 05        		.uleb128 0x5
 1951 0158 02        		.byte	0x2
 1952 0159 0000 0000 		.long	.LM34
 1953 015d 17        		.byte	0x17
 1954 015e 00        		.byte	0x0
 1955 015f 05        		.uleb128 0x5
 1956 0160 02        		.byte	0x2
 1957 0161 0000 0000 		.long	.LM35
 1958 0165 17        		.byte	0x17
 1959 0166 00        		.byte	0x0
 1960 0167 05        		.uleb128 0x5
 1961 0168 02        		.byte	0x2
 1962 0169 0000 0000 		.long	.LM36
 1963 016d 19        		.byte	0x19
 1964 016e 00        		.byte	0x0
 1965 016f 05        		.uleb128 0x5
 1966 0170 02        		.byte	0x2
 1967 0171 0000 0000 		.long	.LM37
 1968 0175 1D        		.byte	0x1d
 1969 0176 00        		.byte	0x0
 1970 0177 05        		.uleb128 0x5
 1971 0178 02        		.byte	0x2
 1972 0179 0000 0000 		.long	.LM38
 1973 017d 16        		.byte	0x16
 1974 017e 00        		.byte	0x0
 1975 017f 05        		.uleb128 0x5
 1976 0180 02        		.byte	0x2
 1977 0181 0000 0000 		.long	.LM39
 1978 0185 03        		.byte	0x3
 1979 0186 40        		.sleb128 -64
 1980 0187 01        		.byte	0x1
 1981 0188 00        		.byte	0x0
 1982 0189 05        		.uleb128 0x5
 1983 018a 02        		.byte	0x2
 1984 018b 0000 0000 		.long	.LM40
GAS LISTING C:\Users\Jason\AppData\Local\Temp/ccHKK7pe.s 			page 37


 1985 018f 16        		.byte	0x16
 1986 0190 00        		.byte	0x0
 1987 0191 05        		.uleb128 0x5
 1988 0192 02        		.byte	0x2
 1989 0193 0000 0000 		.long	.LM41
 1990 0197 16        		.byte	0x16
 1991 0198 00        		.byte	0x0
 1992 0199 05        		.uleb128 0x5
 1993 019a 02        		.byte	0x2
 1994 019b 0000 0000 		.long	.LM42
 1995 019f 03        		.byte	0x3
 1996 01a0 B27F      		.sleb128 -78
 1997 01a2 01        		.byte	0x1
 1998 01a3 00        		.byte	0x0
 1999 01a4 05        		.uleb128 0x5
 2000 01a5 02        		.byte	0x2
 2001 01a6 0000 0000 		.long	.LM43
 2002 01aa 16        		.byte	0x16
 2003 01ab 00        		.byte	0x0
 2004 01ac 05        		.uleb128 0x5
 2005 01ad 02        		.byte	0x2
 2006 01ae 0000 0000 		.long	.LM44
 2007 01b2 16        		.byte	0x16
 2008 01b3 00        		.byte	0x0
 2009 01b4 05        		.uleb128 0x5
 2010 01b5 02        		.byte	0x2
 2011 01b6 0000 0000 		.long	.LM45
 2012 01ba 5F        		.byte	0x5f
 2013 01bb 00        		.byte	0x0
 2014 01bc 05        		.uleb128 0x5
 2015 01bd 02        		.byte	0x2
 2016 01be 0000 0000 		.long	.LM46
 2017 01c2 03        		.byte	0x3
 2018 01c3 44        		.sleb128 -60
 2019 01c4 01        		.byte	0x1
 2020 01c5 00        		.byte	0x0
 2021 01c6 05        		.uleb128 0x5
 2022 01c7 02        		.byte	0x2
 2023 01c8 0000 0000 		.long	.LM47
 2024 01cc 16        		.byte	0x16
 2025 01cd 00        		.byte	0x0
 2026 01ce 05        		.uleb128 0x5
 2027 01cf 02        		.byte	0x2
 2028 01d0 0000 0000 		.long	.LM48
 2029 01d4 17        		.byte	0x17
 2030 01d5 00        		.byte	0x0
 2031 01d6 05        		.uleb128 0x5
 2032 01d7 02        		.byte	0x2
 2033 01d8 0000 0000 		.long	.LM49
 2034 01dc 17        		.byte	0x17
 2035 01dd 00        		.byte	0x0
 2036 01de 05        		.uleb128 0x5
 2037 01df 02        		.byte	0x2
 2038 01e0 0000 0000 		.long	.LM50
 2039 01e4 15        		.byte	0x15
 2040 01e5 00        		.byte	0x0
 2041 01e6 05        		.uleb128 0x5
GAS LISTING C:\Users\Jason\AppData\Local\Temp/ccHKK7pe.s 			page 38


 2042 01e7 02        		.byte	0x2
 2043 01e8 0000 0000 		.long	.LM51
 2044 01ec 21        		.byte	0x21
 2045 01ed 00        		.byte	0x0
 2046 01ee 05        		.uleb128 0x5
 2047 01ef 02        		.byte	0x2
 2048 01f0 0000 0000 		.long	.LM52
 2049 01f4 03        		.byte	0x3
 2050 01f5 60        		.sleb128 -32
 2051 01f6 01        		.byte	0x1
 2052 01f7 00        		.byte	0x0
 2053 01f8 05        		.uleb128 0x5
 2054 01f9 02        		.byte	0x2
 2055 01fa 0000 0000 		.long	.LM53
 2056 01fe 16        		.byte	0x16
 2057 01ff 00        		.byte	0x0
 2058 0200 05        		.uleb128 0x5
 2059 0201 02        		.byte	0x2
 2060 0202 0000 0000 		.long	.LM54
 2061 0206 15        		.byte	0x15
 2062 0207 00        		.byte	0x0
 2063 0208 05        		.uleb128 0x5
 2064 0209 02        		.byte	0x2
 2065 020a 0000 0000 		.long	.LM55
 2066 020e 17        		.byte	0x17
 2067 020f 00        		.byte	0x0
 2068 0210 05        		.uleb128 0x5
 2069 0211 02        		.byte	0x2
 2070 0212 0000 0000 		.long	.LM56
 2071 0216 03        		.byte	0x3
 2072 0217 BF7F      		.sleb128 -65
 2073 0219 01        		.byte	0x1
 2074 021a 00        		.byte	0x0
 2075 021b 05        		.uleb128 0x5
 2076 021c 02        		.byte	0x2
 2077 021d 0000 0000 		.long	.LM57
 2078 0221 17        		.byte	0x17
 2079 0222 00        		.byte	0x0
 2080 0223 05        		.uleb128 0x5
 2081 0224 02        		.byte	0x2
 2082 0225 0000 0000 		.long	.LM58
 2083 0229 16        		.byte	0x16
 2084 022a 00        		.byte	0x0
 2085 022b 05        		.uleb128 0x5
 2086 022c 02        		.byte	0x2
 2087 022d 0000 0000 		.long	.LM59
 2088 0231 1B        		.byte	0x1b
 2089 0232 00        		.byte	0x0
 2090 0233 05        		.uleb128 0x5
 2091 0234 02        		.byte	0x2
 2092 0235 0000 0000 		.long	.LM60
 2093 0239 03        		.byte	0x3
 2094 023a 5E        		.sleb128 -34
 2095 023b 01        		.byte	0x1
 2096 023c 00        		.byte	0x0
 2097 023d 05        		.uleb128 0x5
 2098 023e 02        		.byte	0x2
GAS LISTING C:\Users\Jason\AppData\Local\Temp/ccHKK7pe.s 			page 39


 2099 023f 0000 0000 		.long	.LM61
 2100 0243 16        		.byte	0x16
 2101 0244 00        		.byte	0x0
 2102 0245 05        		.uleb128 0x5
 2103 0246 02        		.byte	0x2
 2104 0247 0000 0000 		.long	.LM62
 2105 024b 16        		.byte	0x16
 2106 024c 00        		.byte	0x0
 2107 024d 05        		.uleb128 0x5
 2108 024e 02        		.byte	0x2
 2109 024f 0000 0000 		.long	.LM63
 2110 0253 17        		.byte	0x17
 2111 0254 00        		.byte	0x0
 2112 0255 05        		.uleb128 0x5
 2113 0256 02        		.byte	0x2
 2114 0257 0000 0000 		.long	.LM64
 2115 025b 17        		.byte	0x17
 2116 025c 00        		.byte	0x0
 2117 025d 05        		.uleb128 0x5
 2118 025e 02        		.byte	0x2
 2119 025f 0000 0000 		.long	.LM65
 2120 0263 16        		.byte	0x16
 2121 0264 00        		.byte	0x0
 2122 0265 05        		.uleb128 0x5
 2123 0266 02        		.byte	0x2
 2124 0267 0000 0000 		.long	.LM66
 2125 026b 15        		.byte	0x15
 2126 026c 00        		.byte	0x0
 2127 026d 05        		.uleb128 0x5
 2128 026e 02        		.byte	0x2
 2129 026f 0000 0000 		.long	.LM67
 2130 0273 16        		.byte	0x16
 2131 0274 00        		.byte	0x0
 2132 0275 05        		.uleb128 0x5
 2133 0276 02        		.byte	0x2
 2134 0277 0000 0000 		.long	.LM68
 2135 027b 16        		.byte	0x16
 2136 027c 00        		.byte	0x0
 2137 027d 05        		.uleb128 0x5
 2138 027e 02        		.byte	0x2
 2139 027f 0000 0000 		.long	.LM69
 2140 0283 15        		.byte	0x15
 2141 0284 00        		.byte	0x0
 2142 0285 05        		.uleb128 0x5
 2143 0286 02        		.byte	0x2
 2144 0287 0000 0000 		.long	.Letext0
 2145 028b 00        		.byte	0x0
 2146 028c 01        		.uleb128 0x1
 2147 028d 01        		.byte	0x1
 2148               	.LELT0:
 2149 028e 1600 0000 		.section	.debug_str,"MS",@progbits,1
 2149      0200 1000 
 2149      0000 0101 
 2149      FB0E 0A00 
 2149      0101 0101 
 2150               	.LASF10:
 2151 0000 6461 7461 		.string	"dataindex"
GAS LISTING C:\Users\Jason\AppData\Local\Temp/ccHKK7pe.s 			page 40


 2151      696E 6465 
 2151      7800 
 2152               	.LASF9:
 2153 000a 6461 7461 		.string	"datalength"
 2153      6C65 6E67 
 2153      7468 00
 2154               	.LASF42:
 2155 0015 474E 5520 		.string	"GNU C 4.3.3"
 2155      4320 342E 
 2155      332E 3300 
 2156               	.LASF17:
 2157 0021 7561 7274 		.string	"uartSetBaudRate"
 2157      5365 7442 
 2157      6175 6452 
 2157      6174 6500 
 2158               	.LASF32:
 2159 0031 7561 7274 		.string	"uartInitBuffers"
 2159      496E 6974 
 2159      4275 6666 
 2159      6572 7300 
 2160               	.LASF30:
 2161 0041 7278 4461 		.string	"rxData"
 2161      7461 00
 2162               	.LASF35:
 2163 0048 7561 7274 		.string	"uartTxData"
 2163      5478 4461 
 2163      7461 00
 2164               	.LASF13:
 2165 0053 7368 6F72 		.string	"short int"
 2165      7420 696E 
 2165      7400 
 2166               	.LASF34:
 2167 005d 7561 7274 		.string	"uartRxData"
 2167      5278 4461 
 2167      7461 00
 2168               	.LASF27:
 2169 0068 7561 7274 		.string	"uartSendTxBuffer"
 2169      5365 6E64 
 2169      5478 4275 
 2169      6666 6572 
 2169      00
 2170               	.LASF31:
 2171 0079 7561 7274 		.string	"uartGetByte"
 2171      4765 7442 
 2171      7974 6500 
 2172               	.LASF21:
 2173 0085 7561 7274 		.string	"uartGetTxBuffer"
 2173      4765 7454 
 2173      7842 7566 
 2173      6665 7200 
 2174               	.LASF20:
 2175 0095 7561 7274 		.string	"uartGetRxBuffer"
 2175      4765 7452 
 2175      7842 7566 
 2175      6665 7200 
 2176               	.LASF5:
 2177 00a5 6C6F 6E67 		.string	"long long int"
GAS LISTING C:\Users\Jason\AppData\Local\Temp/ccHKK7pe.s 			page 41


 2177      206C 6F6E 
 2177      6720 696E 
 2177      7400 
 2178               	.LASF3:
 2179 00b3 6C6F 6E67 		.string	"long int"
 2179      2069 6E74 
 2179      00
 2180               	.LASF47:
 2181 00bc 6261 7564 		.string	"bauddiv"
 2181      6469 7600 
 2182               	.LASF37:
 2183 00c4 7561 7274 		.string	"uartReadyTx"
 2183      5265 6164 
 2183      7954 7800 
 2184               	.LASF29:
 2185 00d0 7561 7274 		.string	"uartReceiveByte"
 2185      5265 6365 
 2185      6976 6542 
 2185      7974 6500 
 2186               	.LASF19:
 2187 00e0 6261 7564 		.string	"baudrate"
 2187      7261 7465 
 2187      00
 2188               	.LASF40:
 2189 00e9 7561 7274 		.string	"uartTxBuffer"
 2189      5478 4275 
 2189      6666 6572 
 2189      00
 2190               	.LASF15:
 2191 00f6 766F 6964 		.string	"voidFuncPtru08"
 2191      4675 6E63 
 2191      5074 7275 
 2191      3038 00
 2192               	.LASF25:
 2193 0105 7561 7274 		.string	"uartFlushReceiveBuffer"
 2193      466C 7573 
 2193      6852 6563 
 2193      6569 7665 
 2193      4275 6666 
 2194               	.LASF1:
 2195 011c 756E 7369 		.string	"unsigned char"
 2195      676E 6564 
 2195      2063 6861 
 2195      7200 
 2196               	.LASF18:
 2197 012a 7278 5F66 		.string	"rx_func"
 2197      756E 6300 
 2198               	.LASF0:
 2199 0132 7369 676E 		.string	"signed char"
 2199      6564 2063 
 2199      6861 7200 
 2200               	.LASF6:
 2201 013e 6C6F 6E67 		.string	"long long unsigned int"
 2201      206C 6F6E 
 2201      6720 756E 
 2201      7369 676E 
 2201      6564 2069 
GAS LISTING C:\Users\Jason\AppData\Local\Temp/ccHKK7pe.s 			page 42


 2202               	.LASF2:
 2203 0155 756E 7369 		.string	"unsigned int"
 2203      676E 6564 
 2203      2069 6E74 
 2203      00
 2204               	.LASF33:
 2205 0162 7561 7274 		.string	"uartInit"
 2205      496E 6974 
 2205      00
 2206               	.LASF11:
 2207 016b 7368 6F72 		.string	"short unsigned int"
 2207      7420 756E 
 2207      7369 676E 
 2207      6564 2069 
 2207      6E74 00
 2208               	.LASF28:
 2209 017e 7561 7274 		.string	"uartAddToTxBuffer"
 2209      4164 6454 
 2209      6F54 7842 
 2209      7566 6665 
 2209      7200 
 2210               	.LASF14:
 2211 0190 6368 6172 		.string	"char"
 2211      00
 2212               	.LASF24:
 2213 0195 6461 7461 		.string	"data"
 2213      00
 2214               	.LASF36:
 2215 019a 5561 7274 		.string	"UartRxFunc"
 2215      5278 4675 
 2215      6E63 00
 2216               	.LASF38:
 2217 01a5 7561 7274 		.string	"uartBufferedTx"
 2217      4275 6666 
 2217      6572 6564 
 2217      5478 00
 2218               	.LASF43:
 2219 01b4 433A 5C41 		.string	"C:\\AVRlib/uart.c"
 2219      5652 6C69 
 2219      622F 7561 
 2219      7274 2E63 
 2219      00
 2220               	.LASF26:
 2221 01c5 5F5F 7665 		.string	"__vector_13"
 2221      6374 6F72 
 2221      5F31 3300 
 2222               	.LASF4:
 2223 01d1 6C6F 6E67 		.string	"long unsigned int"
 2223      2075 6E73 
 2223      6967 6E65 
 2223      6420 696E 
 2223      7400 
 2224               	.LASF39:
 2225 01e3 7561 7274 		.string	"uartRxBuffer"
 2225      5278 4275 
 2225      6666 6572 
 2225      00
GAS LISTING C:\Users\Jason\AppData\Local\Temp/ccHKK7pe.s 			page 43


 2226               	.LASF8:
 2227 01f0 7369 7A65 		.string	"size"
 2227      00
 2228               	.LASF44:
 2229 01f5 7374 7275 		.string	"struct_cBuffer"
 2229      6374 5F63 
 2229      4275 6666 
 2229      6572 00
 2230               	.LASF12:
 2231 0204 6342 7566 		.string	"cBuffer"
 2231      6665 7200 
 2232               	.LASF46:
 2233 020c 7478 4461 		.string	"txData"
 2233      7461 00
 2234               	.LASF41:
 2235 0213 7561 7274 		.string	"uartRxOverflow"
 2235      5278 4F76 
 2235      6572 666C 
 2235      6F77 00
 2236               	.LASF23:
 2237 0222 5F5F 7665 		.string	"__vector_11"
 2237      6374 6F72 
 2237      5F31 3100 
 2238               	.LASF7:
 2239 022e 6461 7461 		.string	"dataptr"
 2239      7074 7200 
 2240               	.LASF16:
 2241 0236 7561 7274 		.string	"uartSetRxHandler"
 2241      5365 7452 
 2241      7848 616E 
 2241      646C 6572 
 2241      00
 2242               	.LASF22:
 2243 0247 7561 7274 		.string	"uartReceiveBufferIsEmpty"
 2243      5265 6365 
 2243      6976 6542 
 2243      7566 6665 
 2243      7249 7345 
 2244               	.LASF45:
 2245 0260 7561 7274 		.string	"uartSendByte"
 2245      5365 6E64 
 2245      4279 7465 
 2245      00
 2246               	.global __do_clear_bss
GAS LISTING C:\Users\Jason\AppData\Local\Temp/ccHKK7pe.s 			page 44


DEFINED SYMBOLS
                            *ABS*:00000000 uart.c
C:\Users\Jason\AppData\Local\Temp/ccHKK7pe.s:2      *ABS*:0000003f __SREG__
C:\Users\Jason\AppData\Local\Temp/ccHKK7pe.s:3      *ABS*:0000003e __SP_H__
C:\Users\Jason\AppData\Local\Temp/ccHKK7pe.s:4      *ABS*:0000003d __SP_L__
C:\Users\Jason\AppData\Local\Temp/ccHKK7pe.s:5      *ABS*:00000034 __CCP__
C:\Users\Jason\AppData\Local\Temp/ccHKK7pe.s:6      *ABS*:00000000 __tmp_reg__
C:\Users\Jason\AppData\Local\Temp/ccHKK7pe.s:7      *ABS*:00000001 __zero_reg__
C:\Users\Jason\AppData\Local\Temp/ccHKK7pe.s:18     .text:00000000 uartSetRxHandler
C:\Users\Jason\AppData\Local\Temp/ccHKK7pe.s:505    .bss:00000080 UartRxFunc
C:\Users\Jason\AppData\Local\Temp/ccHKK7pe.s:34     .text:0000000a uartSetBaudRate
C:\Users\Jason\AppData\Local\Temp/ccHKK7pe.s:74     .text:0000003e uartGetRxBuffer
                            *COM*:00000008 uartRxBuffer
C:\Users\Jason\AppData\Local\Temp/ccHKK7pe.s:88     .text:00000044 uartGetTxBuffer
                            *COM*:00000008 uartTxBuffer
C:\Users\Jason\AppData\Local\Temp/ccHKK7pe.s:102    .text:0000004a uartSendByte
                            *COM*:00000001 uartReadyTx
C:\Users\Jason\AppData\Local\Temp/ccHKK7pe.s:126    .text:0000005c uartFlushReceiveBuffer
C:\Users\Jason\AppData\Local\Temp/ccHKK7pe.s:141    .text:00000066 uartReceiveBufferIsEmpty
C:\Users\Jason\AppData\Local\Temp/ccHKK7pe.s:161    .text:0000007a __vector_11
                            *COM*:00000002 uartRxOverflow
C:\Users\Jason\AppData\Local\Temp/ccHKK7pe.s:237    .text:000000f8 uartAddToTxBuffer
C:\Users\Jason\AppData\Local\Temp/ccHKK7pe.s:257    .text:00000104 __vector_13
                            *COM*:00000001 uartBufferedTx
C:\Users\Jason\AppData\Local\Temp/ccHKK7pe.s:325    .text:00000172 uartSendTxBuffer
C:\Users\Jason\AppData\Local\Temp/ccHKK7pe.s:358    .text:00000192 uartReceiveByte
C:\Users\Jason\AppData\Local\Temp/ccHKK7pe.s:399    .text:000001c6 uartGetByte
C:\Users\Jason\AppData\Local\Temp/ccHKK7pe.s:438    .text:000001f2 uartInitBuffers
                             .bss:00000000 uartRxData
C:\Users\Jason\AppData\Local\Temp/ccHKK7pe.s:504    .bss:00000040 uartTxData
C:\Users\Jason\AppData\Local\Temp/ccHKK7pe.s:466    .text:00000214 uartInit

UNDEFINED SYMBOLS
__udivmodsi4
bufferAddToEnd
bufferGetFromFront
bufferInit
__do_clear_bss
